(lp0
I-1000
aI-1000
aI-1000
aI-1000
aI-1000
aI-1000
aI-1000
aI-1000
aI-1000
aI-1000
aI-1000
aI-1000
aI-1000
aI-1000
aI-1000
aI-1000
aI-1000
aI-1000
aI-1000
aI-1000
aI-1000
aI-1000
aI-1000
aI-1000
aI-1000
aI-1000
aI1000
aI-1000
aI-1000
aI-1000
aI-1000
aI-1000
aI-1000
aI-1000
aI-1000
aI-1000
aI-1000
aI-1000
aI-1000
aI-1000
aI-1000
aI-1000
aI-1000
aI-1000
aI-1000
aI-1000
aI-1000
aI-1000
aI-1000
aI-1000
aI-1000
aI-1000
aI-1000
aI1000
aI-1000
aI-1000
aI-1000
aI-1000
aI-1000
aI-1000
aI-1000
aI-1000
aI-1000
aI-1000
aI-1000
aI-1000
aI-1000
aI-1000
aI-1000
aI-1000
aI-1000
aI-1000
aI-1000
aI-1000
aI-1000
aI-1000
aI-1000
aI-1000
aI-1000
aI-1000
aI1000
aI-1000
aI-1000
aI-1000
aI-1000
aI-1000
aI-1000
aI-1000
aI-1000
aI-1000
aI-1000
aI-1000
aI-1000
aI-1000
aI-1000
aI-1000
aI-1000
aI-1000
aI-1000
aI-1000
aI-1000
aI-1000
aI-1000
aI-1000
aI-1000
aI-1000
aI-1000
aI1000
aI-1000
aI-1000
aI-1000
aI-1000
aI-1000
aI-1000
aI-1000
aI-1000
aI-1000
aI-1000
aI-1000
aI-1000
aI-1000
aI-1000
aI-1000
aI-1000
aI-1000
aI-1000
aI-1000
aI-1000
aI-1000
aI-1000
aI-1000
aI-1000
aI-1000
aI-1000
aI1000
aI-1000
aI-1000
aI-1000
aI-1000
aI-1000
aI-1000
aI-1000
aI-1000
aI-1000
aI-1000
aI-1000
aI-1000
aI-1000
aI-1000
aI-1000
aI-1000
aI-1000
aI-1000
aI-1000
aI-1000
aI-1000
aI-1000
aI-1000
aI-1000
aI-1000
aI-1000
aI1000
aI-1000
aI-1000
aI-1000
aI-1000
aI-1000
aI-1000
aI-1000
aI-1000
aI-1000
aI-1000
aI-1000
aI-1000
aI-1000
aI-1000
aI-1000
aI-1000
aI-1000
aI-1000
aI-1000
aI-1000
aI-1000
aI-1000
aI-1000
aI-1000
aI-1000
aI-1000
aI1000
aI-1000
aI-1000
aI-1000
aI-1000
aI-1000
aI-1000
aI-1000
aI-1000
aI-1000
aI-1000
aI-1000
aI-1000
aI-1000
aI-1000
aI-1000
aI-1000
aI-1000
aI-1000
aI-1000
aI-1000
aI-1000
aI-1000
aI-1000
aI-1000
aI-1000
aI-1000
aI1000
aI-1000
aI-1000
aI-1000
aI-1000
aI-1000
aI-1000
aI-1000
aI-1000
aI-1000
aI-1000
aI-1000
aI-1000
aI-1000
aI-1000
aI-1000
aI-1000
aI-1000
aI-1000
aI-1000
aI-1000
aI-1000
aI-1000
aI-1000
aI-1000
aI-1000
aI-1000
aI1000
aI-1000
aI-1000
aI-1000
aI-1000
aI-1000
aI-1000
aI-1000
aI-1000
aI-1000
aI-1000
aI-1000
aI-1000
aI-1000
aI-1000
aI-1000
aI-1000
aI-1000
aI-1000
aI-1000
aI-1000
aI-1000
aI-1000
aI-1000
aI-1000
aI-1000
aI-1000
aI1000
aI-1000
aI-1000
aI-1000
aI-1000
aI-1000
aI-1000
aI-1000
aI-1000
aI-1000
aI-1000
aI-1000
aI-1000
aI-1000
aI-1000
aI-1000
aI-1000
aI-1000
aI-1000
aI-1000
aI-1000
aI-1000
aI-1000
aI-1000
aI-1000
aI-1000
aI-1000
aI1000
aI-1000
aI-1000
aI-1000
aI-1000
aI-1000
aI-1000
aI-1000
aI-1000
aI-1000
aI-1000
aI-1000
aI-1000
aI-1000
aI-1000
aI-1000
aI-1000
aI-1000
aI-1000
aI-1000
aI-1000
aI-1000
aI-1000
aI-1000
aI-1000
aI-1000
aI-1000
aI1000
aI-1000
aI-1000
aI-1000
aI-1000
aI-1000
aI-1000
aI-1000
aI-1000
aI-1000
aI-1000
aI-1000
aI-1000
aI-1000
aI-1000
aI-1000
aI-1000
aI-1000
aI-1000
aI-1000
aI-1000
aI-1000
aI-1000
aI-1000
aI-1000
aI-1000
aI-1000
aI1000
aI-1000
aI-1000
aI-1000
aI-1000
aI-1000
aI-1000
aI-1000
aI-1000
aI-1000
aI-1000
aI-1000
aI-1000
aI-1000
aI-1000
aI-1000
aI-1000
aI-1000
aI-1000
aI-1000
aI-1000
aI-1000
aI-1000
aI-1000
aI-1000
aI-1000
aI-1000
aI1000
aI-1000
aI-1000
aI-1000
aI-1000
aI-1000
aI-1000
aI-1000
aI-1000
aI-1000
aI-1000
aI-1000
aI-1000
aI-1000
aI-1000
aI-1000
aI-1000
aI-1000
aI-1000
aI-1000
aI-1000
aI-1000
aI-1000
aI-1000
aI-1000
aI-1000
aI-1000
aI1000
aI-1000
aI-1000
aI-1000
aI-1000
aI-1000
aI-1000
aI-1000
aI-1000
aI-1000
aI-1000
aI-1000
aI-1000
aI-1000
aI-1000
aI-1000
aI-1000
aI-1000
aI-1000
aI-1000
aI-1000
aI-1000
aI-1000
aI-1000
aI-1000
aI-1000
aI-1000
aI1000
aI-1000
aI-1000
aI-1000
aI-1000
aI-1000
aI-1000
aI-1000
aI-1000
aI-1000
aI-1000
aI-1000
aI-1000
aI-1000
aI-1000
aI-1000
aI-1000
aI-1000
aI-1000
aI-1000
aI-1000
aI-1000
aI-1000
aI-1000
aI-1000
aI-1000
aI-1000
aI1000
aI-1000
aI-1000
aI-1000
aI-1000
aI-1000
aI-1000
aI-1000
aI-1000
aI-1000
aI-1000
aI-1000
aI-1000
aI-1000
aI-1000
aI-1000
aI-1000
aI-1000
aI-1000
aI-1000
aI-1000
aI-1000
aI-1000
aI-1000
aI-1000
aI-1000
aI-1000
aI1000
aI-1000
aI-1000
aI-1000
aI-1000
aI-1000
aI-1000
aI-1000
aI-1000
aI-1000
aI-1000
aI-1000
aI-1000
aI-1000
aI-1000
aI-1000
aI-1000
aI-1000
aI-1000
aI-1000
aI-1000
aI-1000
aI-1000
aI-1000
aI-1000
aI-1000
aI-1000
aI1000
aI-1000
aI-1000
aI-1000
aI-1000
aI-1000
aI-1000
aI-1000
aI-1000
aI-1000
aI-1000
aI-1000
aI-1000
aI-1000
aI-1000
aI-1000
aI-1000
aI-1000
aI-1000
aI-1000
aI-1000
aI-1000
aI-1000
aI-1000
aI-1000
aI-1000
aI-1000
aI1000
aI-1000
aI-1000
aI-1000
aI-1000
aI-1000
aI-1000
aI-1000
aI-1000
aI-1000
aI-1000
aI-1000
aI-1000
aI-1000
aI-1000
aI-1000
aI-1000
aI-1000
aI-1000
aI-1000
aI-1000
aI-1000
aI-1000
aI-1000
aI-1000
aI-1000
aI-1000
aI1000
aI-1000
aI-1000
aI-1000
aI-1000
aI-1000
aI-1000
aI-1000
aI-1000
aI-1000
aI-1000
aI-1000
aI-1000
aI-1000
aI-1000
aI-1000
aI-1000
aI-1000
aI-1000
aI-1000
aI-1000
aI-1000
aI-1000
aI-1000
aI-1000
aI-1000
aI-1000
aI1000
aI-1000
aI-1000
aI-1000
aI-1000
aI-1000
aI-1000
aI-1000
aI-1000
aI-1000
aI-1000
aI-1000
aI-1000
aI-1000
aI-1000
aI-1000
aI-1000
aI-1000
aI-1000
aI-1000
aI-1000
aI-1000
aI-1000
aI-1000
aI-1000
aI-1000
aI-1000
aI1000
aI-1000
aI-1000
aI-1000
aI-1000
aI-1000
aI-1000
aI-1000
aI-1000
aI-1000
aI-1000
aI-1000
aI-1000
aI-1000
aI-1000
aI-1000
aI-1000
aI-1000
aI-1000
aI-1000
aI-1000
aI-1000
aI-1000
aI-1000
aI-1000
aI-1000
aI-1000
aI1000
aI-1000
aI-1000
aI-1000
aI-1000
aI-1000
aI-1000
aI-1000
aI-1000
aI-1000
aI-1000
aI-1000
aI-1000
aI-1000
aI-1000
aI-1000
aI-1000
aI-1000
aI-1000
aI-1000
aI-1000
aI-1000
aI-1000
aI-1000
aI-1000
aI-1000
aI-1000
aI1000
aI-1000
aI-1000
aI-1000
aI-1000
aI-1000
aI-1000
aI-1000
aI-1000
aI-1000
aI-1000
aI-1000
aI-1000
aI-1000
aI-1000
aI-1000
aI-1000
aI-1000
aI-1000
aI-1000
aI-1000
aI-1000
aI-1000
aI-1000
aI-1000
aI-1000
aI-1000
aI1000
aI1000
aI1000
aI1000
aI1000
aI1000
aI1000
aI1000
aI1000
aI1000
aI1000
aI1000
aI1000
aI1000
aI1000
aI1000
aI1000
aI1000
aI1000
aI1000
aI1000
aI1000
aI1000
aI1000
aI1000
aI1000
aI1000
aI1000
aI-1000
aI-1000
aI-1000
aI-1000
aI-1000
aI-1000
aI-1000
aI-1000
aI-1000
aI-1000
aI-1000
aI-1000
aI-1000
aI-1000
aI-1000
aI-1000
aI-1000
aI-1000
aI-1000
aI-1000
aI-1000
aI-1000
aI-1000
aI-1000
aI-1000
aI-1000
aI1000
aI-1000
aI-1000
aI-1000
aI-1000
aI-1000
aI-1000
aI-1000
aI-1000
aI-1000
aI-1000
aI-1000
aI-1000
aI-1000
aI0
aI0
aI-1000
aI0
aI0
aI-1000
aI-1000
aI-1000
aI-1000
aI0
aI0
aI-1000
aI0
aI1000
aI-1000
aI-1000
aI-1000
aI-1000
aI-1000
aI-1000
aI-1000
aI-1000
aI-1000
aI-1000
aI-1000
aI-1000
aI-1000
aI0
aI0
aI-1000
aI0
aI0
aI-1000
aI-1000
aI-1000
aI-1000
aI0
aI0
aI-1000
aI0
aI1000
aI-1000
aI-1000
aI-1000
aI-1000
aI-1000
aI-1000
aI-1000
aI-1000
aI-1000
aI0
aI0
aI0
aI0
aI0
aI0
aI0
aI0
aI0
aI0
aI0
aI0
aI0
aI0
aI0
aI0
aI0
aI1000
aI-1000
aI-1000
aI-1000
aI-1000
aI-1000
aI-1000
aI-1000
aI-1000
aI-1000
aI0
aI0
aI0
aI0
aI0
aI0
aI0
aI0
aI0
aI0
aI0
aI0
aI0
aI0
aI0
aI0
aI0
aI1000
aI-1000
aI-1000
aI-1000
aI-1000
aI-1000
aI-1000
aI-1000
aI-1000
aI-1000
aI0
aI0
aI0
aI0
aI0
aI0
aI0
aI0
aI0
aI0
aI0
aI0
aI0
aI0
aI0
aI0
aI0
aI1000
aI-1000
aI-1000
aI-1000
aI-1000
aI-1000
aI-1000
aI-1000
aI-1000
aI-1000
aI0
aI0
aI0
aI0
aI0
aI0
aI0
aI0
aI0
aI0
aI0
aI0
aI0
aI0
aI0
aI0
aI0
aI1000
aI-1000
aI-1000
aI-1000
aI-1000
aI-1000
aI-1000
aI-1000
aI-1000
aI-1000
aI0
aI0
aI0
aI0
aI0
aI0
aI0
aI0
aI0
aI0
aI0
aI0
aI0
aI0
aI0
aI0
aI0
aI1000
aI-1000
aI-1000
aI-1000
aI-1000
aI-1000
aI-1000
aI-1000
aI-1000
aI-1000
aI0
aI0
aI0
aI0
aI0
aI0
aI0
aI0
aI0
aI0
aI0
aI0
aI0
aI0
aI0
aI0
aI0
aI1000
aI-1000
aI-1000
aI-1000
aI-1000
aI0
aI0
aI-1000
aI0
aI0
aI-1000
aI-1000
aI-1000
aI-1000
aI0
aI0
aI-1000
aI0
aI0
aI-1000
aI-1000
aI-1000
aI-1000
aI0
aI0
aI-1000
aI0
aI1000
aI-1000
aI-1000
aI-1000
aI-1000
aI0
aI0
aI-1000
aI0
aI0
aI-1000
aI-1000
aI-1000
aI-1000
aI0
aI0
aI-1000
aI0
aI0
aI-1000
aI-1000
aI-1000
aI-1000
aI0
aI0
aI-1000
aI0
aI1000
aI-1000
aI-1000
aI-1000
aI-1000
aI0
aI0
aI-1000
aI0
aI0
aI-1000
aI-1000
aI-1000
aI-1000
aI0
aI0
aI-1000
aI0
aI0
aI-1000
aI-1000
aI-1000
aI-1000
aI0
aI0
aI-1000
aI0
aI1000
aI-1000
aI0
aI0
aI0
aI0
aI0
aI0
aI0
aI0
aI0
aI0
aI0
aI0
aI0
aI0
aI0
aI0
aI0
aI0
aI0
aI0
aI0
aI0
aI0
aI0
aI0
aI1000
aI-1000
aI0
aI0
aI0
aI0
aI0
aI0
aI0
aI0
aI0
aI0
aI0
aI0
aI0
aI0
aI0
aI0
aI0
aI0
aI0
aI0
aI0
aI0
aI0
aI0
aI0
aI1000
aI-1000
aI0
aI0
aI0
aI0
aI0
aI0
aI0
aI0
aI0
aI0
aI0
aI0
aI0
aI0
aI0
aI0
aI0
aI0
aI0
aI0
aI0
aI0
aI0
aI0
aI0
aI1000
aI-1000
aI0
aI0
aI0
aI0
aI0
aI0
aI0
aI0
aI0
aI0
aI0
aI0
aI0
aI0
aI0
aI0
aI0
aI0
aI0
aI0
aI0
aI0
aI0
aI0
aI0
aI1000
aI-1000
aI0
aI0
aI0
aI0
aI0
aI0
aI0
aI0
aI0
aI0
aI0
aI0
aI0
aI0
aI0
aI0
aI0
aI0
aI0
aI0
aI0
aI0
aI0
aI0
aI0
aI1000
aI-1000
aI0
aI0
aI0
aI0
aI0
aI0
aI0
aI0
aI0
aI0
aI0
aI0
aI0
aI0
aI0
aI0
aI0
aI0
aI0
aI0
aI0
aI0
aI0
aI0
aI0
aI1000
aI-1000
aI-1000
aI-1000
aI-1000
aI0
aI0
aI-1000
aI0
aI0
aI-1000
aI-1000
aI-1000
aI-1000
aI0
aI0
aI-1000
aI0
aI0
aI-1000
aI-1000
aI-1000
aI-1000
aI0
aI0
aI-1000
aI0
aI1000
aI-1000
aI-1000
aI-1000
aI-1000
aI0
aI0
aI-1000
aI0
aI0
aI-1000
aI-1000
aI-1000
aI-1000
aI0
aI0
aI-1000
aI0
aI0
aI-1000
aI-1000
aI-1000
aI-1000
aI0
aI0
aI-1000
aI0
aI1000
aI-1000
aI-1000
aI-1000
aI-1000
aI0
aI0
aI-1000
aI0
aI0
aI-1000
aI-1000
aI-1000
aI-1000
aI0
aI0
aI-1000
aI0
aI0
aI-1000
aI-1000
aI-1000
aI-1000
aI0
aI0
aI-1000
aI0
aI1000
aI-1000
aI0
aI0
aI0
aI0
aI0
aI0
aI0
aI0
aI0
aI0
aI0
aI0
aI0
aI0
aI0
aI0
aI0
aI0
aI0
aI0
aI0
aI0
aI0
aI0
aI0
aI1000
aI-1000
aI0
aI0
aI0
aI0
aI0
aI0
aI0
aI0
aI0
aI0
aI0
aI0
aI0
aI0
aI0
aI0
aI0
aI0
aI0
aI0
aI0
aI0
aI0
aI0
aI0
aI1000
aI-1000
aI0
aI0
aI0
aI0
aI0
aI0
aI0
aI0
aI0
aI0
aI0
aI0
aI0
aI0
aI0
aI0
aI0
aI0
aI0
aI0
aI0
aI0
aI0
aI0
aI0
aI1000
aI-1000
aI0
aI0
aI0
aI0
aI0
aI0
aI0
aI0
aI0
aI0
aI0
aI0
aI0
aI0
aI0
aI0
aI0
aI0
aI0
aI0
aI0
aI0
aI0
aI0
aI0
aI1000
aI-1000
aI0
aI0
aI0
aI0
aI0
aI0
aI0
aI0
aI0
aI0
aI0
aI0
aI0
aI0
aI0
aI0
aI0
aI0
aI0
aI0
aI0
aI0
aI0
aI0
aI0
aI1000
aI1000
aI1000
aI1000
aI1000
aI1000
aI1000
aI1000
aI1000
aI1000
aI1000
aI1000
aI1000
aI1000
aI1000
aI1000
aI1000
aI1000
aI1000
aI1000
aI1000
aI1000
aI1000
aI1000
aI1000
aI1000
aI1000
aI1000
aI-1000
aI-1000
aI-1000
aI-1000
aI-1000
aI-1000
aI-1000
aI-1000
aI-1000
aI-1000
aI-1000
aI-1000
aI-1000
aI-1000
aI-1000
aI-1000
aI-1000
aI-1000
aI-1000
aI-1000
aI-1000
aI-1000
aI-1000
aI-1000
aI-1000
aI-1000
aI1000
aI-1000
aI-1000
aI-1000
aI-1000
aI-1000
aI-1000
aI-1000
aI-1000
aI-1000
aI-1000
aI-1000
aI-1000
aI-1000
aI0
aI0
aI-1000
aI0
aI0
aI-1000
aI-1000
aI-1000
aI-1000
aI0
aI0
aI-1000
aI0
aI1000
aI-1000
aI-1000
aI1000
aI-1000
aI-1000
aI1000
aI-1000
aI-1000
aI1000
aI-1000
aI-1000
aI1000
aI-1000
aI0
aI1000
aI-1000
aI0
aI1000
aI-1000
aI-1000
aI1000
aI-1000
aI0
aI1000
aI-1000
aI0
aI1000
aI-1000
aI-1000
aI-1000
aI-1000
aI-1000
aI-1000
aI-1000
aI-1000
aI-1000
aI0
aI0
aI0
aI0
aI0
aI0
aI0
aI0
aI0
aI0
aI0
aI0
aI0
aI0
aI0
aI0
aI0
aI1000
aI-1000
aI-1000
aI-1000
aI-1000
aI-1000
aI-1000
aI-1000
aI-1000
aI-1000
aI0
aI0
aI0
aI0
aI0
aI0
aI0
aI0
aI0
aI0
aI0
aI0
aI0
aI0
aI0
aI0
aI0
aI1000
aI-1000
aI-1000
aI1000
aI-1000
aI-1000
aI1000
aI-1000
aI-1000
aI1000
aI0
aI0
aI1000
aI0
aI0
aI1000
aI0
aI0
aI1000
aI0
aI0
aI1000
aI0
aI0
aI1000
aI0
aI0
aI1000
aI-1000
aI-1000
aI-1000
aI-1000
aI-1000
aI-1000
aI-1000
aI-1000
aI-1000
aI0
aI0
aI0
aI0
aI0
aI0
aI0
aI0
aI0
aI1000
aI1000
aI1000
aI1000
aI1000
aI1000
aI1000
aI1000
aI1000
aI-1000
aI-1000
aI-1000
aI-1000
aI-1000
aI-1000
aI-1000
aI-1000
aI-1000
aI0
aI0
aI0
aI0
aI0
aI0
aI0
aI0
aI0
aI1000
aI1000
aI1000
aI1000
aI1000
aI1000
aI1000
aI1000
aI1000
aI-1000
aI-1000
aI1000
aI-1000
aI-1000
aI1000
aI-1000
aI-1000
aI1000
aI0
aI0
aI1000
aI0
aI0
aI1000
aI0
aI0
aI1000
aI1000
aI1000
aI1000
aI1000
aI1000
aI1000
aI1000
aI1000
aI1000
aI-1000
aI-1000
aI-1000
aI-1000
aI0
aI0
aI-1000
aI0
aI0
aI-1000
aI-1000
aI-1000
aI-1000
aI0
aI0
aI-1000
aI0
aI0
aI-1000
aI-1000
aI-1000
aI-1000
aI0
aI0
aI-1000
aI0
aI1000
aI-1000
aI-1000
aI-1000
aI-1000
aI0
aI0
aI-1000
aI0
aI0
aI-1000
aI-1000
aI-1000
aI-1000
aI0
aI0
aI-1000
aI0
aI0
aI-1000
aI-1000
aI-1000
aI-1000
aI0
aI0
aI-1000
aI0
aI1000
aI-1000
aI-1000
aI1000
aI-1000
aI0
aI1000
aI-1000
aI0
aI1000
aI-1000
aI-1000
aI1000
aI-1000
aI0
aI1000
aI-1000
aI0
aI1000
aI-1000
aI-1000
aI1000
aI-1000
aI0
aI1000
aI-1000
aI0
aI1000
aI-1000
aI0
aI0
aI0
aI0
aI0
aI0
aI0
aI0
aI0
aI0
aI0
aI0
aI0
aI0
aI0
aI0
aI0
aI0
aI0
aI0
aI0
aI0
aI0
aI0
aI0
aI1000
aI-1000
aI0
aI0
aI0
aI0
aI0
aI0
aI0
aI0
aI0
aI0
aI0
aI0
aI0
aI0
aI0
aI0
aI0
aI0
aI0
aI0
aI0
aI0
aI0
aI0
aI0
aI1000
aI-1000
aI0
aI1000
aI0
aI0
aI1000
aI0
aI0
aI1000
aI0
aI0
aI1000
aI0
aI0
aI1000
aI0
aI0
aI1000
aI0
aI0
aI1000
aI0
aI0
aI1000
aI0
aI0
aI1000
aI-1000
aI0
aI0
aI0
aI0
aI0
aI0
aI0
aI0
aI0
aI0
aI0
aI0
aI0
aI0
aI0
aI0
aI0
aI1000
aI1000
aI1000
aI1000
aI1000
aI1000
aI1000
aI1000
aI1000
aI-1000
aI0
aI0
aI0
aI0
aI0
aI0
aI0
aI0
aI0
aI0
aI0
aI0
aI0
aI0
aI0
aI0
aI0
aI1000
aI1000
aI1000
aI1000
aI1000
aI1000
aI1000
aI1000
aI1000
aI-1000
aI0
aI1000
aI0
aI0
aI1000
aI0
aI0
aI1000
aI0
aI0
aI1000
aI0
aI0
aI1000
aI0
aI0
aI1000
aI1000
aI1000
aI1000
aI1000
aI1000
aI1000
aI1000
aI1000
aI1000
aI-1000
aI-1000
aI-1000
aI-1000
aI0
aI0
aI-1000
aI0
aI100
aI-1000
aI-1000
aI-1000
aI-1000
aI0
aI0
aI-1000
aI0
aI0
aI-1000
aI-1000
aI-1000
aI-1000
aI0
aI0
aI-1000
aI0
aI1000
aI-1000
aI-1000
aI-1000
aI-1000
aI0
aI0
aI-1000
aI0
aI0
aI-1000
aI-1000
aI-1000
aI-1000
aI0
aI0
aI-1000
aI0
aI0
aI-1000
aI-1000
aI-1000
aI-1000
aI0
aI0
aI-1000
aI0
aI1000
aI-1000
aI-1000
aI1000
aI-1000
aI0
aI1000
aI-1000
aI0
aI1000
aI-1000
aI-1000
aI1000
aI-1000
aI0
aI1000
aI-1000
aI0
aI1000
aI-1000
aI-1000
aI1000
aI-1000
aI0
aI1000
aI-1000
aI0
aI1000
aI-1000
aI0
aI0
aI0
aI0
aI0
aI0
aI0
aI0
aI0
aI0
aI0
aI0
aI0
aI0
aI0
aI0
aI0
aI0
aI0
aI0
aI0
aI0
aI0
aI0
aI0
aI1000
aI-1000
aI0
aI0
aI0
aI0
aI0
aI0
aI0
aI0
aI0
aI0
aI0
aI0
aI0
aI0
aI0
aI0
aI0
aI0
aI0
aI0
aI0
aI0
aI0
aI0
aI0
aI1000
aI-1000
aI0
aI1000
aI0
aI0
aI1000
aI0
aI0
aI1000
aI0
aI0
aI1000
aI0
aI0
aI1000
aI0
aI0
aI1000
aI0
aI0
aI1000
aI0
aI0
aI1000
aI0
aI0
aI1000
aI-1000
aI0
aI100
aI0
aI0
aI0
aI100
aI0
aI100
aI0
aI0
aI0
aI0
aI0
aI0
aI0
aI0
aI0
aI1000
aI1000
aI1000
aI1000
aI1000
aI1000
aI1000
aI1000
aI1000
aI-1000
aI0
aI0
aI0
aI0
aI0
aI0
aI0
aI0
aI0
aI0
aI0
aI0
aI0
aI0
aI0
aI0
aI0
aI1000
aI1000
aI1000
aI1000
aI1000
aI1000
aI1000
aI1000
aI1000
aI1000
aI1000
aI1000
aI1000
aI1000
aI1000
aI1000
aI1000
aI1000
aI1000
aI1000
aI1000
aI1000
aI1000
aI1000
aI1000
aI1000
aI1000
aI1000
aI1000
aI1000
aI1000
aI1000
aI1000
aI1000
aI1000
aI1000
aI-1000
aI-1000
aI-1000
aI-1000
aI-1000
aI-1000
aI-1000
aI-1000
aI-1000
aI-1000
aI-1000
aI-1000
aI-1000
aI-1000
aI-1000
aI-1000
aI-1000
aI-1000
aI-1000
aI-1000
aI-1000
aI-1000
aI-1000
aI-1000
aI-1000
aI-1000
aI1000
aI-1000
aI-1000
aI-1000
aI-1000
aI-1000
aI-1000
aI-1000
aI-1000
aI-1000
aI-1000
aI0
aI0
aI-1000
aI0
aI0
aI-1000
aI0
aI0
aI-1000
aI0
aI0
aI-1000
aI0
aI0
aI-1000
aI0
aI1000
aI-1000
aI-1000
aI-1000
aI-1000
aI-1000
aI-1000
aI-1000
aI-1000
aI-1000
aI-1000
aI0
aI0
aI-1000
aI0
aI0
aI-1000
aI0
aI0
aI-1000
aI0
aI0
aI-1000
aI0
aI0
aI-1000
aI0
aI1000
aI-1000
aI-1000
aI-1000
aI-1000
aI-1000
aI-1000
aI-1000
aI-1000
aI-1000
aI-1000
aI0
aI0
aI-1000
aI0
aI0
aI-1000
aI0
aI0
aI-1000
aI0
aI0
aI-1000
aI0
aI0
aI-1000
aI0
aI1000
aI-1000
aI-1000
aI-1000
aI-1000
aI-1000
aI-1000
aI-1000
aI-1000
aI-1000
aI0
aI0
aI0
aI0
aI0
aI0
aI0
aI0
aI0
aI0
aI0
aI0
aI0
aI0
aI0
aI0
aI0
aI1000
aI-1000
aI-1000
aI-1000
aI-1000
aI-1000
aI-1000
aI-1000
aI-1000
aI-1000
aI0
aI0
aI0
aI0
aI0
aI0
aI0
aI0
aI0
aI0
aI0
aI0
aI0
aI0
aI0
aI0
aI0
aI1000
aI-1000
aI-1000
aI-1000
aI-1000
aI-1000
aI-1000
aI-1000
aI-1000
aI-1000
aI-1000
aI0
aI0
aI-1000
aI0
aI0
aI-1000
aI0
aI0
aI-1000
aI0
aI0
aI-1000
aI0
aI0
aI-1000
aI0
aI1000
aI-1000
aI-1000
aI-1000
aI-1000
aI-1000
aI-1000
aI-1000
aI-1000
aI-1000
aI0
aI0
aI0
aI0
aI0
aI0
aI0
aI0
aI0
aI0
aI0
aI0
aI0
aI0
aI0
aI0
aI0
aI1000
aI-1000
aI-1000
aI-1000
aI-1000
aI-1000
aI-1000
aI-1000
aI-1000
aI-1000
aI0
aI0
aI0
aI0
aI0
aI0
aI0
aI0
aI0
aI0
aI0
aI0
aI0
aI0
aI0
aI0
aI0
aI1000
aI-1000
aI-1000
aI-1000
aI-1000
aI-1000
aI-1000
aI-1000
aI-1000
aI-1000
aI-1000
aI0
aI0
aI-1000
aI0
aI0
aI-1000
aI0
aI0
aI-1000
aI0
aI0
aI-1000
aI0
aI0
aI-1000
aI0
aI1000
aI-1000
aI-1000
aI-1000
aI-1000
aI-1000
aI-1000
aI-1000
aI-1000
aI-1000
aI-1000
aI0
aI0
aI-1000
aI0
aI0
aI-1000
aI0
aI0
aI-1000
aI0
aI0
aI-1000
aI0
aI0
aI-1000
aI0
aI1000
aI-1000
aI-1000
aI-1000
aI-1000
aI-1000
aI-1000
aI-1000
aI-1000
aI-1000
aI-1000
aI0
aI0
aI-1000
aI0
aI0
aI-1000
aI0
aI0
aI-1000
aI0
aI0
aI-1000
aI0
aI0
aI-1000
aI0
aI1000
aI-1000
aI0
aI0
aI-1000
aI0
aI0
aI-1000
aI0
aI0
aI-1000
aI0
aI0
aI-1000
aI0
aI0
aI-1000
aI0
aI0
aI-1000
aI0
aI0
aI-1000
aI0
aI0
aI-1000
aI0
aI1000
aI-1000
aI0
aI0
aI0
aI0
aI0
aI0
aI0
aI0
aI0
aI0
aI0
aI0
aI0
aI0
aI0
aI0
aI0
aI0
aI0
aI0
aI0
aI0
aI0
aI0
aI0
aI1000
aI-1000
aI0
aI0
aI0
aI0
aI0
aI0
aI0
aI0
aI0
aI0
aI0
aI0
aI0
aI0
aI0
aI0
aI0
aI0
aI0
aI0
aI0
aI0
aI0
aI0
aI0
aI1000
aI-1000
aI0
aI0
aI-1000
aI0
aI0
aI-1000
aI0
aI0
aI-1000
aI0
aI0
aI-1000
aI0
aI0
aI-1000
aI0
aI0
aI-1000
aI0
aI0
aI-1000
aI0
aI0
aI-1000
aI0
aI1000
aI-1000
aI0
aI0
aI0
aI0
aI0
aI0
aI0
aI0
aI0
aI0
aI0
aI0
aI0
aI0
aI0
aI0
aI0
aI0
aI0
aI0
aI0
aI0
aI0
aI0
aI0
aI1000
aI-1000
aI0
aI0
aI0
aI0
aI0
aI0
aI0
aI0
aI0
aI0
aI0
aI0
aI0
aI0
aI0
aI0
aI0
aI0
aI0
aI0
aI0
aI0
aI0
aI0
aI0
aI1000
aI-1000
aI-1000
aI-1000
aI-1000
aI-1000
aI-1000
aI-1000
aI-1000
aI-1000
aI-1000
aI0
aI0
aI-1000
aI0
aI0
aI-1000
aI0
aI0
aI-1000
aI0
aI0
aI-1000
aI0
aI0
aI-1000
aI0
aI1000
aI-1000
aI-1000
aI-1000
aI-1000
aI-1000
aI-1000
aI-1000
aI-1000
aI-1000
aI-1000
aI0
aI0
aI-1000
aI0
aI0
aI-1000
aI0
aI0
aI-1000
aI0
aI0
aI-1000
aI0
aI0
aI-1000
aI0
aI1000
aI-1000
aI-1000
aI-1000
aI-1000
aI-1000
aI-1000
aI-1000
aI-1000
aI-1000
aI-1000
aI0
aI0
aI-1000
aI0
aI0
aI-1000
aI0
aI0
aI-1000
aI0
aI0
aI-1000
aI0
aI0
aI-1000
aI0
aI1000
aI-1000
aI0
aI0
aI-1000
aI0
aI0
aI-1000
aI0
aI0
aI-1000
aI0
aI0
aI-1000
aI0
aI0
aI-1000
aI0
aI0
aI-1000
aI0
aI0
aI-1000
aI0
aI0
aI-1000
aI0
aI1000
aI-1000
aI0
aI0
aI0
aI0
aI0
aI0
aI0
aI0
aI0
aI0
aI0
aI0
aI0
aI0
aI0
aI0
aI0
aI0
aI0
aI0
aI0
aI0
aI0
aI0
aI0
aI1000
aI-1000
aI0
aI0
aI0
aI0
aI0
aI0
aI0
aI0
aI0
aI0
aI0
aI0
aI0
aI0
aI0
aI0
aI0
aI0
aI0
aI0
aI0
aI0
aI0
aI0
aI0
aI1000
aI-1000
aI0
aI0
aI-1000
aI0
aI0
aI-1000
aI0
aI0
aI-1000
aI0
aI0
aI-1000
aI0
aI0
aI-1000
aI0
aI0
aI-1000
aI0
aI0
aI-1000
aI0
aI0
aI-1000
aI0
aI1000
aI-1000
aI0
aI0
aI0
aI0
aI0
aI0
aI0
aI0
aI0
aI0
aI0
aI0
aI0
aI0
aI0
aI0
aI0
aI0
aI0
aI0
aI0
aI0
aI0
aI0
aI0
aI1000
aI1000
aI1000
aI1000
aI1000
aI1000
aI1000
aI1000
aI1000
aI1000
aI1000
aI1000
aI1000
aI1000
aI1000
aI1000
aI1000
aI1000
aI1000
aI1000
aI1000
aI1000
aI1000
aI1000
aI1000
aI1000
aI1000
aI1000
aI-1000
aI-1000
aI-1000
aI-1000
aI-1000
aI-1000
aI-1000
aI-1000
aI-1000
aI-1000
aI-1000
aI-1000
aI-1000
aI-1000
aI-1000
aI-1000
aI-1000
aI-1000
aI-1000
aI-1000
aI-1000
aI-1000
aI-1000
aI-1000
aI-1000
aI-1000
aI1000
aI-1000
aI-1000
aI-1000
aI-1000
aI-1000
aI-1000
aI-1000
aI-1000
aI-1000
aI-1000
aI0
aI0
aI-1000
aI0
aI0
aI-1000
aI0
aI0
aI-1000
aI0
aI0
aI-1000
aI0
aI0
aI-1000
aI0
aI1000
aI-1000
aI-1000
aI-1000
aI-1000
aI-1000
aI-1000
aI-1000
aI-1000
aI-1000
aI-1000
aI0
aI0
aI-1000
aI0
aI0
aI-1000
aI0
aI0
aI-1000
aI0
aI0
aI-1000
aI0
aI0
aI-1000
aI0
aI1000
aI-1000
aI-1000
aI-1000
aI-1000
aI-1000
aI-1000
aI-1000
aI-1000
aI-1000
aI0
aI0
aI0
aI0
aI0
aI0
aI0
aI0
aI0
aI0
aI0
aI0
aI0
aI0
aI0
aI0
aI0
aI1000
aI-1000
aI-1000
aI-1000
aI-1000
aI-1000
aI-1000
aI-1000
aI-1000
aI-1000
aI0
aI0
aI0
aI0
aI0
aI0
aI0
aI0
aI0
aI0
aI0
aI0
aI0
aI0
aI0
aI0
aI0
aI1000
aI-1000
aI-1000
aI-1000
aI-1000
aI-1000
aI-1000
aI-1000
aI-1000
aI-1000
aI0
aI0
aI0
aI0
aI0
aI0
aI0
aI0
aI0
aI0
aI0
aI0
aI0
aI0
aI0
aI0
aI0
aI1000
aI-1000
aI-1000
aI-1000
aI-1000
aI-1000
aI-1000
aI-1000
aI-1000
aI-1000
aI0
aI0
aI0
aI0
aI0
aI0
aI0
aI0
aI0
aI0
aI0
aI0
aI0
aI0
aI0
aI0
aI0
aI1000
aI-1000
aI-1000
aI-1000
aI-1000
aI-1000
aI-1000
aI-1000
aI-1000
aI-1000
aI0
aI0
aI0
aI0
aI0
aI0
aI0
aI0
aI0
aI0
aI0
aI0
aI0
aI0
aI0
aI0
aI0
aI1000
aI-1000
aI-1000
aI-1000
aI-1000
aI-1000
aI-1000
aI-1000
aI-1000
aI-1000
aI0
aI0
aI0
aI0
aI0
aI0
aI0
aI0
aI0
aI0
aI0
aI0
aI0
aI0
aI0
aI0
aI0
aI1000
aI-1000
aI0
aI0
aI-1000
aI0
aI0
aI-1000
aI0
aI0
aI-1000
aI0
aI0
aI-1000
aI0
aI0
aI-1000
aI0
aI0
aI-1000
aI0
aI0
aI-1000
aI0
aI0
aI-1000
aI0
aI1000
aI-1000
aI0
aI0
aI-1000
aI0
aI0
aI-1000
aI0
aI0
aI-1000
aI0
aI0
aI-1000
aI0
aI0
aI-1000
aI0
aI0
aI-1000
aI0
aI0
aI-1000
aI0
aI0
aI-1000
aI0
aI1000
aI-1000
aI0
aI0
aI-1000
aI0
aI0
aI-1000
aI0
aI0
aI-1000
aI0
aI0
aI-1000
aI0
aI0
aI-1000
aI0
aI0
aI-1000
aI0
aI0
aI-1000
aI0
aI0
aI-1000
aI0
aI1000
aI-1000
aI0
aI0
aI0
aI0
aI0
aI0
aI0
aI0
aI0
aI0
aI0
aI0
aI0
aI0
aI0
aI0
aI0
aI0
aI0
aI0
aI0
aI0
aI0
aI0
aI0
aI1000
aI-1000
aI0
aI0
aI0
aI0
aI0
aI0
aI0
aI0
aI0
aI0
aI0
aI0
aI0
aI0
aI0
aI0
aI0
aI0
aI0
aI0
aI0
aI0
aI0
aI0
aI0
aI1000
aI-1000
aI0
aI0
aI0
aI0
aI0
aI0
aI0
aI0
aI0
aI0
aI0
aI0
aI0
aI0
aI0
aI0
aI0
aI0
aI0
aI0
aI0
aI0
aI0
aI0
aI0
aI1000
aI-1000
aI0
aI0
aI0
aI0
aI0
aI0
aI0
aI0
aI0
aI0
aI0
aI0
aI0
aI0
aI0
aI0
aI0
aI0
aI0
aI0
aI0
aI0
aI0
aI0
aI0
aI1000
aI-1000
aI0
aI0
aI0
aI0
aI0
aI0
aI0
aI0
aI0
aI0
aI0
aI0
aI0
aI0
aI0
aI0
aI0
aI0
aI0
aI0
aI0
aI0
aI0
aI0
aI0
aI1000
aI-1000
aI0
aI0
aI0
aI0
aI0
aI0
aI0
aI0
aI0
aI0
aI0
aI0
aI0
aI0
aI0
aI0
aI0
aI0
aI0
aI0
aI0
aI0
aI0
aI0
aI0
aI1000
aI-1000
aI0
aI0
aI-1000
aI0
aI0
aI-1000
aI0
aI0
aI-1000
aI0
aI0
aI-1000
aI0
aI0
aI-1000
aI0
aI0
aI-1000
aI0
aI0
aI-1000
aI0
aI0
aI-1000
aI0
aI1000
aI-1000
aI0
aI0
aI-1000
aI0
aI0
aI-1000
aI0
aI0
aI-1000
aI0
aI0
aI-1000
aI0
aI0
aI-1000
aI0
aI0
aI-1000
aI0
aI0
aI-1000
aI0
aI0
aI-1000
aI0
aI1000
aI-1000
aI0
aI0
aI-1000
aI0
aI0
aI-1000
aI0
aI0
aI-1000
aI0
aI0
aI-1000
aI0
aI0
aI-1000
aI0
aI0
aI-1000
aI0
aI0
aI-1000
aI0
aI0
aI-1000
aI0
aI1000
aI-1000
aI0
aI0
aI0
aI0
aI0
aI0
aI0
aI0
aI0
aI0
aI0
aI0
aI0
aI0
aI0
aI0
aI0
aI0
aI0
aI0
aI0
aI0
aI0
aI0
aI0
aI1000
aI-1000
aI0
aI0
aI0
aI0
aI0
aI0
aI0
aI0
aI0
aI0
aI0
aI0
aI0
aI0
aI0
aI0
aI0
aI0
aI0
aI0
aI0
aI0
aI0
aI0
aI0
aI1000
aI-1000
aI0
aI0
aI0
aI0
aI0
aI0
aI0
aI0
aI0
aI0
aI0
aI0
aI0
aI0
aI0
aI0
aI0
aI0
aI0
aI0
aI0
aI0
aI0
aI0
aI0
aI1000
aI-1000
aI0
aI0
aI0
aI0
aI0
aI0
aI0
aI0
aI0
aI0
aI0
aI0
aI0
aI0
aI0
aI0
aI0
aI0
aI0
aI0
aI0
aI0
aI0
aI0
aI0
aI1000
aI-1000
aI0
aI0
aI0
aI0
aI0
aI0
aI0
aI0
aI0
aI0
aI0
aI0
aI0
aI0
aI0
aI0
aI0
aI0
aI0
aI0
aI0
aI0
aI0
aI0
aI0
aI1000
aI1000
aI1000
aI1000
aI1000
aI1000
aI1000
aI1000
aI1000
aI1000
aI1000
aI1000
aI1000
aI1000
aI1000
aI1000
aI1000
aI1000
aI1000
aI1000
aI1000
aI1000
aI1000
aI1000
aI1000
aI1000
aI1000
aI1000
aI-1000
aI-1000
aI-1000
aI-1000
aI-1000
aI-1000
aI-1000
aI-1000
aI-1000
aI-1000
aI-1000
aI-1000
aI-1000
aI-1000
aI-1000
aI-1000
aI-1000
aI-1000
aI-1000
aI-1000
aI-1000
aI-1000
aI-1000
aI-1000
aI-1000
aI-1000
aI1000
aI-1000
aI-1000
aI-1000
aI-1000
aI-1000
aI-1000
aI-1000
aI-1000
aI-1000
aI-1000
aI0
aI0
aI-1000
aI0
aI0
aI-1000
aI0
aI0
aI-1000
aI0
aI0
aI-1000
aI0
aI0
aI-1000
aI0
aI1000
aI-1000
aI-1000
aI1000
aI-1000
aI-1000
aI1000
aI-1000
aI-1000
aI1000
aI-1000
aI0
aI1000
aI-1000
aI0
aI1000
aI-1000
aI0
aI1000
aI-1000
aI0
aI1000
aI-1000
aI0
aI1000
aI-1000
aI0
aI1000
aI-1000
aI-1000
aI-1000
aI-1000
aI-1000
aI-1000
aI-1000
aI-1000
aI-1000
aI0
aI0
aI0
aI0
aI0
aI0
aI0
aI0
aI0
aI0
aI0
aI0
aI0
aI0
aI0
aI0
aI0
aI1000
aI-1000
aI-1000
aI-1000
aI-1000
aI-1000
aI-1000
aI-1000
aI-1000
aI-1000
aI0
aI0
aI0
aI0
aI0
aI0
aI0
aI0
aI0
aI0
aI0
aI0
aI0
aI0
aI0
aI0
aI0
aI1000
aI-1000
aI-1000
aI1000
aI-1000
aI-1000
aI1000
aI-1000
aI-1000
aI1000
aI0
aI0
aI1000
aI0
aI0
aI1000
aI0
aI0
aI1000
aI0
aI0
aI1000
aI0
aI0
aI1000
aI0
aI0
aI1000
aI-1000
aI-1000
aI-1000
aI-1000
aI-1000
aI-1000
aI-1000
aI-1000
aI-1000
aI0
aI0
aI0
aI0
aI0
aI0
aI0
aI0
aI0
aI1000
aI1000
aI1000
aI1000
aI1000
aI1000
aI1000
aI1000
aI1000
aI-1000
aI-1000
aI-1000
aI-1000
aI-1000
aI-1000
aI-1000
aI-1000
aI-1000
aI0
aI0
aI0
aI0
aI0
aI0
aI0
aI0
aI0
aI1000
aI1000
aI1000
aI1000
aI1000
aI1000
aI1000
aI1000
aI1000
aI-1000
aI-1000
aI1000
aI-1000
aI-1000
aI1000
aI-1000
aI-1000
aI1000
aI0
aI0
aI1000
aI0
aI0
aI1000
aI0
aI0
aI1000
aI1000
aI1000
aI1000
aI1000
aI1000
aI1000
aI1000
aI1000
aI1000
aI-1000
aI0
aI0
aI-1000
aI0
aI0
aI-1000
aI0
aI0
aI-1000
aI0
aI0
aI-1000
aI0
aI0
aI-1000
aI0
aI0
aI-1000
aI0
aI0
aI-1000
aI0
aI0
aI-1000
aI0
aI1000
aI-1000
aI0
aI0
aI-1000
aI0
aI0
aI-1000
aI0
aI0
aI-1000
aI0
aI0
aI-1000
aI0
aI0
aI-1000
aI0
aI0
aI-1000
aI0
aI0
aI-1000
aI0
aI0
aI-1000
aI0
aI1000
aI-1000
aI0
aI1000
aI-1000
aI0
aI1000
aI-1000
aI0
aI1000
aI-1000
aI0
aI1000
aI-1000
aI0
aI1000
aI-1000
aI0
aI1000
aI-1000
aI0
aI1000
aI-1000
aI0
aI1000
aI-1000
aI0
aI1000
aI-1000
aI0
aI0
aI0
aI0
aI0
aI0
aI0
aI0
aI0
aI0
aI0
aI0
aI0
aI0
aI0
aI0
aI0
aI0
aI0
aI0
aI0
aI0
aI0
aI0
aI0
aI1000
aI-1000
aI0
aI0
aI0
aI0
aI0
aI0
aI0
aI0
aI0
aI0
aI0
aI0
aI0
aI0
aI0
aI0
aI0
aI0
aI0
aI0
aI0
aI0
aI0
aI0
aI0
aI1000
aI-1000
aI0
aI1000
aI0
aI0
aI1000
aI0
aI0
aI1000
aI0
aI0
aI1000
aI0
aI0
aI1000
aI0
aI0
aI1000
aI0
aI0
aI1000
aI0
aI0
aI1000
aI0
aI0
aI1000
aI-1000
aI0
aI0
aI0
aI0
aI0
aI0
aI0
aI0
aI0
aI0
aI0
aI0
aI0
aI0
aI0
aI0
aI0
aI1000
aI1000
aI1000
aI1000
aI1000
aI1000
aI1000
aI1000
aI1000
aI-1000
aI0
aI0
aI0
aI0
aI0
aI0
aI0
aI0
aI0
aI0
aI0
aI0
aI0
aI0
aI0
aI0
aI0
aI1000
aI1000
aI1000
aI1000
aI1000
aI1000
aI1000
aI1000
aI1000
aI-1000
aI0
aI1000
aI0
aI0
aI1000
aI0
aI0
aI1000
aI0
aI0
aI1000
aI0
aI0
aI1000
aI0
aI0
aI1000
aI1000
aI1000
aI1000
aI1000
aI1000
aI1000
aI1000
aI1000
aI1000
aI-1000
aI0
aI0
aI-1000
aI0
aI0
aI-1000
aI0
aI0
aI-1000
aI0
aI0
aI-1000
aI0
aI0
aI-1000
aI0
aI0
aI-1000
aI0
aI0
aI-1000
aI0
aI0
aI-1000
aI0
aI1000
aI-1000
aI0
aI0
aI-1000
aI0
aI0
aI-1000
aI0
aI0
aI-1000
aI0
aI0
aI-1000
aI0
aI0
aI-1000
aI0
aI0
aI-1000
aI0
aI0
aI-1000
aI0
aI0
aI-1000
aI0
aI1000
aI-1000
aI0
aI1000
aI-1000
aI0
aI1000
aI-1000
aI0
aI1000
aI-1000
aI0
aI1000
aI-1000
aI0
aI1000
aI-1000
aI0
aI1000
aI-1000
aI0
aI1000
aI-1000
aI0
aI1000
aI-1000
aI0
aI1000
aI-1000
aI0
aI0
aI0
aI0
aI0
aI0
aI0
aI0
aI0
aI0
aI0
aI0
aI0
aI0
aI0
aI0
aI0
aI0
aI0
aI0
aI0
aI0
aI0
aI0
aI0
aI1000
aI-1000
aI0
aI0
aI0
aI0
aI0
aI0
aI0
aI0
aI0
aI0
aI0
aI0
aI0
aI0
aI0
aI0
aI0
aI0
aI0
aI0
aI0
aI0
aI0
aI0
aI0
aI1000
aI-1000
aI0
aI1000
aI0
aI0
aI1000
aI0
aI0
aI1000
aI0
aI0
aI1000
aI0
aI0
aI1000
aI0
aI0
aI1000
aI0
aI0
aI1000
aI0
aI0
aI1000
aI0
aI0
aI1000
aI-1000
aI0
aI0
aI0
aI0
aI0
aI0
aI0
aI0
aI0
aI0
aI0
aI0
aI0
aI0
aI0
aI0
aI0
aI1000
aI1000
aI1000
aI1000
aI1000
aI1000
aI1000
aI1000
aI1000
aI-1000
aI0
aI0
aI0
aI0
aI0
aI0
aI0
aI0
aI0
aI0
aI0
aI0
aI0
aI0
aI0
aI0
aI0
aI1000
aI1000
aI1000
aI1000
aI1000
aI1000
aI1000
aI1000
aI1000
aI1000
aI1000
aI1000
aI1000
aI1000
aI1000
aI1000
aI1000
aI1000
aI1000
aI1000
aI1000
aI1000
aI1000
aI1000
aI1000
aI1000
aI1000
aI1000
aI1000
aI1000
aI1000
aI1000
aI1000
aI1000
aI1000
aI1000
aI-1000
aI-1000
aI-1000
aI-1000
aI-1000
aI-1000
aI-1000
aI-1000
aI-1000
aI-1000
aI-1000
aI-1000
aI-1000
aI-1000
aI-1000
aI-1000
aI-1000
aI-1000
aI-1000
aI-1000
aI-1000
aI-1000
aI-1000
aI-1000
aI-1000
aI-1000
aI1000
aI-1000
aI-1000
aI-1000
aI-1000
aI-1000
aI-1000
aI-1000
aI-1000
aI-1000
aI-1000
aI0
aI0
aI-1000
aI0
aI0
aI-1000
aI0
aI0
aI-1000
aI0
aI0
aI-1000
aI0
aI0
aI-1000
aI0
aI1000
aI-1000
aI-1000
aI-1000
aI-1000
aI-1000
aI-1000
aI-1000
aI-1000
aI-1000
aI-1000
aI0
aI0
aI-1000
aI0
aI0
aI-1000
aI0
aI0
aI-1000
aI0
aI100
aI-1000
aI0
aI0
aI-1000
aI0
aI1000
aI-1000
aI-1000
aI-1000
aI-1000
aI-1000
aI-1000
aI-1000
aI-1000
aI-1000
aI-1000
aI0
aI0
aI-1000
aI0
aI0
aI-1000
aI0
aI0
aI-1000
aI0
aI0
aI-1000
aI0
aI0
aI-1000
aI0
aI1000
aI-1000
aI-1000
aI-1000
aI-1000
aI-1000
aI-1000
aI-1000
aI-1000
aI-1000
aI0
aI0
aI0
aI0
aI0
aI0
aI0
aI0
aI0
aI0
aI0
aI0
aI0
aI0
aI0
aI0
aI0
aI1000
aI-1000
aI-1000
aI-1000
aI-1000
aI-1000
aI-1000
aI-1000
aI-1000
aI-1000
aI0
aI0
aI0
aI0
aI0
aI0
aI0
aI0
aI0
aI0
aI0
aI0
aI0
aI0
aI0
aI0
aI0
aI1000
aI-1000
aI-1000
aI-1000
aI-1000
aI-1000
aI-1000
aI1000
aI1000
aI1000
aI-1000
aI0
aI0
aI-1000
aI0
aI0
aI1000
aI1000
aI1000
aI-1000
aI0
aI100
aI-1000
aI0
aI0
aI1000
aI1000
aI1000
aI-1000
aI-1000
aI-1000
aI-1000
aI-1000
aI-1000
aI1000
aI1000
aI1000
aI0
aI0
aI0
aI0
aI0
aI0
aI1000
aI1000
aI1000
aI0
aI0
aI0
aI0
aI0
aI0
aI1000
aI1000
aI1000
aI-1000
aI-1000
aI-1000
aI-1000
aI-1000
aI-1000
aI1000
aI1000
aI1000
aI0
aI0
aI0
aI0
aI0
aI0
aI1000
aI1000
aI1000
aI100
aI0
aI100
aI0
aI0
aI0
aI1000
aI1000
aI1000
aI-1000
aI-1000
aI-1000
aI-1000
aI-1000
aI-1000
aI-1000
aI-1000
aI-1000
aI-1000
aI0
aI0
aI-1000
aI0
aI0
aI-1000
aI0
aI0
aI-1000
aI0
aI0
aI-1000
aI0
aI0
aI-1000
aI0
aI1000
aI-1000
aI-1000
aI-1000
aI-1000
aI-1000
aI-1000
aI-1000
aI-1000
aI-1000
aI-1000
aI0
aI0
aI-1000
aI0
aI0
aI-1000
aI0
aI0
aI-1000
aI0
aI0
aI-1000
aI0
aI0
aI-1000
aI0
aI1000
aI-1000
aI-1000
aI-1000
aI-1000
aI-1000
aI-1000
aI-1000
aI-1000
aI-1000
aI-1000
aI0
aI0
aI-1000
aI0
aI0
aI-1000
aI0
aI0
aI-1000
aI0
aI0
aI-1000
aI0
aI0
aI-1000
aI0
aI1000
aI-1000
aI0
aI0
aI-1000
aI0
aI0
aI-1000
aI0
aI0
aI-1000
aI0
aI0
aI-1000
aI0
aI0
aI-1000
aI0
aI0
aI-1000
aI0
aI0
aI-1000
aI0
aI0
aI-1000
aI0
aI1000
aI-1000
aI0
aI0
aI0
aI0
aI0
aI0
aI0
aI0
aI0
aI0
aI0
aI0
aI0
aI0
aI0
aI0
aI0
aI0
aI0
aI0
aI0
aI0
aI0
aI0
aI0
aI1000
aI-1000
aI0
aI0
aI0
aI0
aI0
aI0
aI0
aI0
aI0
aI0
aI0
aI0
aI0
aI0
aI0
aI0
aI0
aI0
aI0
aI0
aI0
aI0
aI0
aI0
aI0
aI1000
aI-1000
aI0
aI0
aI-1000
aI0
aI0
aI1000
aI1000
aI1000
aI-1000
aI0
aI0
aI-1000
aI0
aI0
aI1000
aI1000
aI1000
aI-1000
aI0
aI0
aI-1000
aI0
aI0
aI1000
aI1000
aI1000
aI-1000
aI0
aI0
aI0
aI0
aI0
aI1000
aI1000
aI1000
aI0
aI0
aI0
aI0
aI0
aI0
aI1000
aI1000
aI1000
aI0
aI0
aI0
aI0
aI0
aI0
aI1000
aI1000
aI1000
aI-1000
aI0
aI0
aI0
aI0
aI0
aI1000
aI1000
aI1000
aI0
aI0
aI0
aI0
aI0
aI0
aI1000
aI1000
aI1000
aI0
aI0
aI0
aI0
aI0
aI0
aI1000
aI1000
aI1000
aI-1000
aI-1000
aI-1000
aI-1000
aI-1000
aI-1000
aI-1000
aI-1000
aI-1000
aI-1000
aI0
aI0
aI-1000
aI0
aI0
aI-1000
aI0
aI0
aI-1000
aI0
aI100
aI-1000
aI0
aI0
aI-1000
aI0
aI1000
aI-1000
aI-1000
aI-1000
aI-1000
aI-1000
aI-1000
aI-1000
aI-1000
aI-1000
aI-1000
aI0
aI0
aI-1000
aI0
aI0
aI-1000
aI0
aI0
aI-1000
aI0
aI0
aI-1000
aI0
aI0
aI-1000
aI0
aI1000
aI-1000
aI-1000
aI-1000
aI-1000
aI-1000
aI-1000
aI-1000
aI-1000
aI-1000
aI-1000
aI0
aI0
aI-1000
aI0
aI0
aI-1000
aI0
aI0
aI-1000
aI0
aI100
aI-1000
aI0
aI0
aI-1000
aI0
aI1000
aI-1000
aI0
aI0
aI-1000
aI0
aI0
aI-1000
aI0
aI0
aI-1000
aI0
aI0
aI-1000
aI0
aI0
aI-1000
aI0
aI0
aI-1000
aI0
aI0
aI-1000
aI0
aI0
aI-1000
aI0
aI1000
aI-1000
aI0
aI0
aI0
aI0
aI0
aI0
aI0
aI0
aI0
aI0
aI0
aI0
aI0
aI0
aI0
aI0
aI0
aI0
aI0
aI0
aI0
aI0
aI0
aI0
aI0
aI1000
aI-1000
aI0
aI0
aI0
aI0
aI0
aI0
aI0
aI0
aI0
aI0
aI0
aI0
aI0
aI0
aI0
aI0
aI0
aI0
aI0
aI0
aI0
aI0
aI0
aI0
aI0
aI1000
aI-1000
aI0
aI100
aI-1000
aI0
aI0
aI1000
aI1000
aI1000
aI-1000
aI0
aI0
aI-1000
aI0
aI0
aI1000
aI1000
aI1000
aI-1000
aI0
aI100
aI-1000
aI0
aI0
aI1000
aI1000
aI1000
aI-1000
aI0
aI0
aI0
aI0
aI0
aI1000
aI1000
aI1000
aI0
aI0
aI0
aI0
aI0
aI0
aI1000
aI1000
aI1000
aI0
aI0
aI0
aI0
aI0
aI0
aI1000
aI1000
aI1000
aI1000
aI1000
aI1000
aI1000
aI1000
aI1000
aI1000
aI1000
aI1000
aI1000
aI1000
aI1000
aI1000
aI1000
aI1000
aI1000
aI1000
aI1000
aI1000
aI1000
aI1000
aI1000
aI1000
aI1000
aI1000
aI1000
aI1000
aI-1000
aI-1000
aI-1000
aI-1000
aI-1000
aI-1000
aI-1000
aI-1000
aI-1000
aI-1000
aI-1000
aI-1000
aI-1000
aI-1000
aI-1000
aI-1000
aI-1000
aI-1000
aI-1000
aI-1000
aI-1000
aI-1000
aI-1000
aI-1000
aI-1000
aI-1000
aI1000
aI-1000
aI-1000
aI-1000
aI-1000
aI-1000
aI-1000
aI-1000
aI-1000
aI-1000
aI-1000
aI0
aI0
aI-1000
aI0
aI0
aI-1000
aI0
aI0
aI-1000
aI0
aI0
aI-1000
aI0
aI0
aI-1000
aI0
aI1000
aI-1000
aI-1000
aI-1000
aI-1000
aI-1000
aI-1000
aI-1000
aI-1000
aI-1000
aI-1000
aI0
aI0
aI-1000
aI0
aI0
aI-1000
aI0
aI0
aI-1000
aI0
aI0
aI-1000
aI0
aI0
aI-1000
aI0
aI1000
aI-1000
aI-1000
aI-1000
aI-1000
aI-1000
aI-1000
aI-1000
aI-1000
aI-1000
aI0
aI0
aI0
aI0
aI0
aI0
aI0
aI0
aI0
aI0
aI0
aI0
aI0
aI0
aI0
aI0
aI0
aI1000
aI-1000
aI-1000
aI-1000
aI-1000
aI-1000
aI-1000
aI-1000
aI-1000
aI-1000
aI0
aI0
aI0
aI0
aI0
aI0
aI0
aI0
aI0
aI0
aI0
aI0
aI0
aI0
aI0
aI0
aI0
aI1000
aI-1000
aI-1000
aI-1000
aI-1000
aI-1000
aI-1000
aI-1000
aI-1000
aI-1000
aI0
aI0
aI0
aI0
aI0
aI0
aI0
aI0
aI0
aI0
aI0
aI0
aI0
aI0
aI0
aI0
aI0
aI1000
aI-1000
aI-1000
aI-1000
aI-1000
aI-1000
aI-1000
aI1000
aI1000
aI1000
aI0
aI0
aI0
aI0
aI0
aI0
aI1000
aI1000
aI1000
aI0
aI0
aI0
aI0
aI0
aI0
aI1000
aI1000
aI1000
aI-1000
aI-1000
aI-1000
aI-1000
aI-1000
aI-1000
aI1000
aI1000
aI1000
aI0
aI0
aI0
aI0
aI0
aI0
aI1000
aI1000
aI1000
aI0
aI0
aI0
aI0
aI0
aI0
aI1000
aI1000
aI1000
aI-1000
aI-1000
aI-1000
aI-1000
aI-1000
aI-1000
aI1000
aI1000
aI1000
aI0
aI0
aI0
aI0
aI0
aI0
aI1000
aI1000
aI1000
aI0
aI0
aI0
aI0
aI0
aI0
aI1000
aI1000
aI1000
aI-1000
aI0
aI0
aI-1000
aI0
aI0
aI-1000
aI0
aI0
aI-1000
aI0
aI0
aI-1000
aI0
aI0
aI-1000
aI0
aI0
aI-1000
aI0
aI0
aI-1000
aI0
aI0
aI-1000
aI0
aI1000
aI-1000
aI0
aI0
aI-1000
aI0
aI0
aI-1000
aI0
aI0
aI-1000
aI0
aI0
aI-1000
aI0
aI0
aI-1000
aI0
aI0
aI-1000
aI0
aI0
aI-1000
aI0
aI0
aI-1000
aI0
aI1000
aI-1000
aI0
aI0
aI-1000
aI0
aI0
aI-1000
aI0
aI0
aI-1000
aI0
aI0
aI-1000
aI0
aI0
aI-1000
aI0
aI0
aI-1000
aI0
aI0
aI-1000
aI0
aI0
aI-1000
aI0
aI1000
aI-1000
aI0
aI0
aI0
aI0
aI0
aI0
aI0
aI0
aI0
aI0
aI0
aI0
aI0
aI0
aI0
aI0
aI0
aI0
aI0
aI0
aI0
aI0
aI0
aI0
aI0
aI1000
aI-1000
aI0
aI0
aI0
aI0
aI0
aI0
aI0
aI0
aI0
aI0
aI0
aI0
aI0
aI0
aI0
aI0
aI0
aI0
aI0
aI0
aI0
aI0
aI0
aI0
aI0
aI1000
aI-1000
aI0
aI0
aI0
aI0
aI0
aI0
aI0
aI0
aI0
aI0
aI0
aI0
aI0
aI0
aI0
aI0
aI0
aI0
aI0
aI0
aI0
aI0
aI0
aI0
aI0
aI1000
aI-1000
aI0
aI0
aI0
aI0
aI0
aI1000
aI1000
aI1000
aI0
aI0
aI0
aI0
aI0
aI0
aI1000
aI1000
aI1000
aI0
aI0
aI0
aI0
aI0
aI0
aI1000
aI1000
aI1000
aI-1000
aI0
aI0
aI0
aI0
aI0
aI1000
aI1000
aI1000
aI0
aI0
aI0
aI0
aI0
aI0
aI1000
aI1000
aI1000
aI0
aI0
aI0
aI0
aI0
aI0
aI1000
aI1000
aI1000
aI-1000
aI0
aI0
aI0
aI0
aI0
aI1000
aI1000
aI1000
aI0
aI0
aI0
aI0
aI0
aI0
aI1000
aI1000
aI1000
aI0
aI0
aI0
aI0
aI0
aI0
aI1000
aI1000
aI1000
aI-1000
aI0
aI0
aI-1000
aI0
aI0
aI-1000
aI0
aI0
aI-1000
aI0
aI0
aI-1000
aI0
aI0
aI-1000
aI0
aI0
aI-1000
aI0
aI0
aI-1000
aI0
aI0
aI-1000
aI0
aI1000
aI-1000
aI0
aI0
aI-1000
aI0
aI0
aI-1000
aI0
aI0
aI-1000
aI0
aI0
aI-1000
aI0
aI0
aI-1000
aI0
aI0
aI-1000
aI0
aI0
aI-1000
aI0
aI0
aI-1000
aI0
aI1000
aI-1000
aI0
aI0
aI-1000
aI0
aI0
aI-1000
aI0
aI0
aI-1000
aI0
aI0
aI-1000
aI0
aI0
aI-1000
aI0
aI0
aI-1000
aI0
aI0
aI-1000
aI0
aI0
aI-1000
aI0
aI1000
aI-1000
aI0
aI0
aI0
aI0
aI0
aI0
aI0
aI0
aI0
aI0
aI0
aI0
aI0
aI0
aI0
aI0
aI0
aI0
aI0
aI0
aI0
aI0
aI0
aI0
aI0
aI1000
aI-1000
aI0
aI0
aI0
aI0
aI0
aI0
aI0
aI0
aI0
aI0
aI0
aI0
aI0
aI0
aI0
aI0
aI0
aI0
aI0
aI0
aI0
aI0
aI0
aI0
aI0
aI1000
aI-1000
aI0
aI0
aI0
aI0
aI0
aI0
aI0
aI0
aI0
aI0
aI0
aI0
aI0
aI0
aI0
aI0
aI0
aI0
aI0
aI0
aI0
aI0
aI0
aI0
aI0
aI1000
aI-1000
aI0
aI0
aI0
aI0
aI0
aI1000
aI1000
aI1000
aI0
aI0
aI0
aI0
aI0
aI0
aI1000
aI1000
aI1000
aI0
aI0
aI0
aI0
aI0
aI0
aI1000
aI1000
aI1000
aI-1000
aI0
aI0
aI0
aI0
aI0
aI1000
aI1000
aI1000
aI0
aI0
aI0
aI0
aI0
aI0
aI1000
aI1000
aI1000
aI0
aI0
aI0
aI0
aI0
aI0
aI1000
aI1000
aI1000
aI1000
aI1000
aI1000
aI1000
aI1000
aI1000
aI1000
aI1000
aI1000
aI1000
aI1000
aI1000
aI1000
aI1000
aI1000
aI1000
aI1000
aI1000
aI1000
aI1000
aI1000
aI1000
aI1000
aI1000
aI1000
aI1000
aI1000
aI-1000
aI-1000
aI-1000
aI-1000
aI-1000
aI-1000
aI-1000
aI-1000
aI-1000
aI-1000
aI-1000
aI-1000
aI-1000
aI-1000
aI-1000
aI-1000
aI-1000
aI-1000
aI-1000
aI-1000
aI-1000
aI-1000
aI-1000
aI-1000
aI-1000
aI-1000
aI1000
aI-1000
aI-1000
aI-1000
aI-1000
aI-1000
aI-1000
aI-1000
aI-1000
aI-1000
aI-1000
aI0
aI0
aI-1000
aI0
aI0
aI-1000
aI0
aI0
aI-1000
aI0
aI0
aI-1000
aI0
aI0
aI-1000
aI0
aI1000
aI-1000
aI-1000
aI1000
aI-1000
aI-1000
aI1000
aI-1000
aI-1000
aI1000
aI-1000
aI0
aI1000
aI-1000
aI0
aI1000
aI-1000
aI0
aI1000
aI-1000
aI0
aI1000
aI-1000
aI0
aI1000
aI-1000
aI0
aI1000
aI-1000
aI-1000
aI-1000
aI-1000
aI-1000
aI-1000
aI-1000
aI-1000
aI-1000
aI0
aI0
aI0
aI0
aI0
aI0
aI0
aI0
aI0
aI0
aI0
aI0
aI0
aI0
aI0
aI0
aI0
aI1000
aI-1000
aI-1000
aI-1000
aI-1000
aI-1000
aI-1000
aI-1000
aI-1000
aI-1000
aI0
aI0
aI0
aI0
aI0
aI0
aI0
aI0
aI0
aI0
aI0
aI0
aI0
aI0
aI0
aI0
aI0
aI1000
aI-1000
aI-1000
aI1000
aI-1000
aI-1000
aI1000
aI-1000
aI-1000
aI1000
aI0
aI0
aI1000
aI0
aI0
aI1000
aI0
aI0
aI1000
aI0
aI0
aI1000
aI0
aI0
aI1000
aI0
aI0
aI1000
aI-1000
aI-1000
aI-1000
aI-1000
aI-1000
aI-1000
aI1000
aI1000
aI1000
aI0
aI0
aI0
aI0
aI0
aI0
aI1000
aI1000
aI1000
aI1000
aI1000
aI1000
aI1000
aI1000
aI1000
aI1000
aI1000
aI1000
aI-1000
aI-1000
aI-1000
aI-1000
aI-1000
aI-1000
aI1000
aI1000
aI1000
aI0
aI0
aI0
aI0
aI0
aI0
aI1000
aI1000
aI1000
aI1000
aI1000
aI1000
aI1000
aI1000
aI1000
aI1000
aI1000
aI1000
aI-1000
aI-1000
aI1000
aI-1000
aI-1000
aI1000
aI1000
aI1000
aI1000
aI0
aI0
aI1000
aI0
aI0
aI1000
aI1000
aI1000
aI1000
aI1000
aI1000
aI1000
aI1000
aI1000
aI1000
aI1000
aI1000
aI1000
aI-1000
aI0
aI0
aI-1000
aI0
aI0
aI-1000
aI0
aI0
aI-1000
aI0
aI0
aI-1000
aI0
aI0
aI-1000
aI0
aI0
aI-1000
aI0
aI0
aI-1000
aI0
aI0
aI-1000
aI0
aI1000
aI-1000
aI0
aI0
aI-1000
aI0
aI0
aI-1000
aI0
aI0
aI-1000
aI0
aI0
aI-1000
aI0
aI0
aI-1000
aI0
aI0
aI-1000
aI0
aI0
aI-1000
aI0
aI0
aI-1000
aI0
aI1000
aI-1000
aI0
aI1000
aI-1000
aI0
aI1000
aI-1000
aI0
aI1000
aI-1000
aI0
aI1000
aI-1000
aI0
aI1000
aI-1000
aI0
aI1000
aI-1000
aI0
aI1000
aI-1000
aI0
aI1000
aI-1000
aI0
aI1000
aI-1000
aI0
aI0
aI0
aI0
aI0
aI0
aI0
aI0
aI0
aI0
aI0
aI0
aI0
aI0
aI0
aI0
aI0
aI0
aI0
aI0
aI0
aI0
aI0
aI0
aI0
aI1000
aI-1000
aI0
aI0
aI0
aI0
aI0
aI0
aI0
aI0
aI0
aI0
aI0
aI0
aI0
aI0
aI0
aI0
aI0
aI0
aI0
aI0
aI0
aI0
aI0
aI0
aI0
aI1000
aI-1000
aI0
aI1000
aI0
aI0
aI1000
aI0
aI0
aI1000
aI0
aI0
aI1000
aI0
aI0
aI1000
aI0
aI0
aI1000
aI0
aI0
aI1000
aI0
aI0
aI1000
aI0
aI0
aI1000
aI-1000
aI0
aI0
aI0
aI0
aI0
aI1000
aI1000
aI1000
aI0
aI0
aI0
aI0
aI0
aI0
aI1000
aI1000
aI1000
aI1000
aI1000
aI1000
aI1000
aI1000
aI1000
aI1000
aI1000
aI1000
aI-1000
aI0
aI0
aI0
aI0
aI0
aI1000
aI1000
aI1000
aI0
aI0
aI0
aI0
aI0
aI0
aI1000
aI1000
aI1000
aI1000
aI1000
aI1000
aI1000
aI1000
aI1000
aI1000
aI1000
aI1000
aI-1000
aI0
aI1000
aI0
aI0
aI1000
aI1000
aI1000
aI1000
aI0
aI0
aI1000
aI0
aI0
aI1000
aI1000
aI1000
aI1000
aI1000
aI1000
aI1000
aI1000
aI1000
aI1000
aI1000
aI1000
aI1000
aI-1000
aI0
aI100
aI-1000
aI0
aI0
aI-1000
aI0
aI100
aI-1000
aI0
aI0
aI-1000
aI0
aI0
aI-1000
aI0
aI0
aI-1000
aI0
aI100
aI-1000
aI0
aI0
aI-1000
aI0
aI1000
aI-1000
aI0
aI0
aI-1000
aI0
aI0
aI-1000
aI0
aI0
aI-1000
aI0
aI0
aI-1000
aI0
aI0
aI-1000
aI0
aI0
aI-1000
aI0
aI0
aI-1000
aI0
aI0
aI-1000
aI0
aI1000
aI-1000
aI0
aI1000
aI-1000
aI0
aI1000
aI-1000
aI0
aI1000
aI-1000
aI0
aI1000
aI-1000
aI0
aI1000
aI-1000
aI0
aI1000
aI-1000
aI0
aI1000
aI-1000
aI0
aI1000
aI-1000
aI0
aI1000
aI-1000
aI0
aI0
aI0
aI0
aI0
aI0
aI0
aI0
aI0
aI0
aI0
aI0
aI0
aI0
aI0
aI0
aI0
aI0
aI0
aI0
aI0
aI0
aI0
aI0
aI0
aI1000
aI-1000
aI0
aI0
aI0
aI0
aI0
aI0
aI0
aI0
aI0
aI0
aI0
aI0
aI0
aI0
aI0
aI0
aI0
aI0
aI0
aI0
aI0
aI0
aI0
aI0
aI0
aI1000
aI-1000
aI0
aI1000
aI0
aI0
aI1000
aI0
aI0
aI1000
aI0
aI0
aI1000
aI0
aI0
aI1000
aI0
aI0
aI1000
aI0
aI0
aI1000
aI0
aI0
aI1000
aI0
aI0
aI1000
aI-1000
aI0
aI100
aI0
aI0
aI0
aI1000
aI1000
aI1000
aI0
aI0
aI0
aI0
aI0
aI0
aI1000
aI1000
aI1000
aI1000
aI1000
aI1000
aI1000
aI1000
aI1000
aI1000
aI1000
aI1000
aI-1000
aI0
aI0
aI0
aI0
aI0
aI1000
aI1000
aI1000
aI0
aI0
aI0
aI0
aI0
aI0
aI1000
aI1000
aI1000
aI1000
aI1000
aI1000
aI1000
aI1000
aI1000
aI1000
aI1000
aI1000
aI1000
aI1000
aI1000
aI1000
aI1000
aI1000
aI1000
aI1000
aI1000
aI1000
aI1000
aI1000
aI1000
aI1000
aI1000
aI1000
aI1000
aI1000
aI1000
aI1000
aI1000
aI1000
aI1000
aI1000
aI1000
aI1000
aI1000
aI-1000
aI-1000
aI-1000
aI-1000
aI-1000
aI-1000
aI-1000
aI-1000
aI-1000
aI-1000
aI-1000
aI-1000
aI-1000
aI-1000
aI-1000
aI-1000
aI-1000
aI-1000
aI-1000
aI-1000
aI-1000
aI-1000
aI-1000
aI-1000
aI-1000
aI-1000
aI1000
aI-1000
aI-1000
aI-1000
aI-1000
aI-1000
aI-1000
aI-1000
aI-1000
aI-1000
aI-1000
aI-1000
aI-1000
aI0
aI0
aI0
aI0
aI0
aI0
aI-1000
aI-1000
aI-1000
aI0
aI0
aI0
aI0
aI0
aI1000
aI-1000
aI-1000
aI-1000
aI-1000
aI-1000
aI-1000
aI-1000
aI-1000
aI-1000
aI-1000
aI-1000
aI-1000
aI0
aI0
aI0
aI0
aI0
aI0
aI-1000
aI-1000
aI-1000
aI0
aI0
aI0
aI0
aI0
aI1000
aI-1000
aI0
aI0
aI-1000
aI0
aI0
aI-1000
aI0
aI0
aI-1000
aI0
aI0
aI-1000
aI0
aI0
aI-1000
aI0
aI0
aI-1000
aI0
aI0
aI-1000
aI0
aI0
aI-1000
aI0
aI1000
aI-1000
aI0
aI0
aI0
aI0
aI0
aI0
aI0
aI0
aI0
aI0
aI0
aI0
aI0
aI0
aI0
aI0
aI0
aI0
aI0
aI0
aI0
aI0
aI0
aI0
aI0
aI1000
aI-1000
aI0
aI0
aI0
aI0
aI0
aI0
aI0
aI0
aI0
aI0
aI0
aI0
aI0
aI0
aI0
aI0
aI0
aI0
aI0
aI0
aI0
aI0
aI0
aI0
aI0
aI1000
aI-1000
aI0
aI0
aI-1000
aI0
aI0
aI-1000
aI0
aI0
aI-1000
aI0
aI0
aI-1000
aI0
aI0
aI-1000
aI0
aI0
aI-1000
aI0
aI0
aI-1000
aI0
aI0
aI-1000
aI0
aI1000
aI-1000
aI0
aI0
aI0
aI0
aI0
aI0
aI0
aI0
aI0
aI0
aI0
aI0
aI0
aI0
aI0
aI0
aI0
aI0
aI0
aI0
aI0
aI0
aI0
aI0
aI0
aI1000
aI-1000
aI0
aI0
aI0
aI0
aI0
aI0
aI0
aI0
aI0
aI0
aI0
aI0
aI0
aI0
aI0
aI0
aI0
aI0
aI0
aI0
aI0
aI0
aI0
aI0
aI0
aI1000
aI-1000
aI-1000
aI-1000
aI-1000
aI-1000
aI-1000
aI-1000
aI-1000
aI-1000
aI-1000
aI-1000
aI-1000
aI-1000
aI0
aI0
aI-1000
aI0
aI0
aI-1000
aI-1000
aI-1000
aI-1000
aI0
aI0
aI-1000
aI0
aI1000
aI-1000
aI-1000
aI-1000
aI-1000
aI-1000
aI-1000
aI-1000
aI-1000
aI-1000
aI-1000
aI-1000
aI-1000
aI0
aI0
aI0
aI0
aI0
aI0
aI-1000
aI-1000
aI-1000
aI0
aI0
aI0
aI0
aI0
aI1000
aI-1000
aI-1000
aI-1000
aI-1000
aI-1000
aI-1000
aI-1000
aI-1000
aI-1000
aI-1000
aI-1000
aI-1000
aI0
aI0
aI0
aI0
aI0
aI0
aI-1000
aI-1000
aI-1000
aI0
aI0
aI0
aI0
aI0
aI1000
aI-1000
aI0
aI0
aI-1000
aI0
aI0
aI-1000
aI0
aI0
aI-1000
aI0
aI0
aI-1000
aI0
aI0
aI-1000
aI0
aI0
aI-1000
aI0
aI0
aI-1000
aI0
aI0
aI-1000
aI0
aI1000
aI-1000
aI0
aI0
aI0
aI0
aI0
aI0
aI0
aI0
aI0
aI0
aI0
aI0
aI0
aI0
aI0
aI0
aI0
aI0
aI0
aI0
aI0
aI0
aI0
aI0
aI0
aI1000
aI-1000
aI0
aI0
aI0
aI0
aI0
aI0
aI0
aI0
aI0
aI0
aI0
aI0
aI0
aI0
aI0
aI0
aI0
aI0
aI0
aI0
aI0
aI0
aI0
aI0
aI0
aI1000
aI-1000
aI0
aI0
aI-1000
aI0
aI0
aI-1000
aI0
aI0
aI-1000
aI0
aI0
aI-1000
aI0
aI0
aI-1000
aI0
aI0
aI-1000
aI0
aI0
aI-1000
aI0
aI0
aI-1000
aI0
aI1000
aI-1000
aI0
aI0
aI0
aI0
aI0
aI0
aI0
aI0
aI0
aI0
aI0
aI0
aI0
aI0
aI0
aI0
aI0
aI0
aI0
aI0
aI0
aI0
aI0
aI0
aI0
aI1000
aI-1000
aI0
aI0
aI0
aI0
aI0
aI0
aI0
aI0
aI0
aI0
aI0
aI0
aI0
aI0
aI0
aI0
aI0
aI0
aI0
aI0
aI0
aI0
aI0
aI0
aI0
aI1000
aI-1000
aI-1000
aI-1000
aI-1000
aI-1000
aI-1000
aI-1000
aI-1000
aI-1000
aI-1000
aI-1000
aI-1000
aI-1000
aI0
aI0
aI-1000
aI0
aI0
aI-1000
aI-1000
aI-1000
aI-1000
aI0
aI0
aI-1000
aI0
aI1000
aI-1000
aI-1000
aI-1000
aI-1000
aI-1000
aI-1000
aI-1000
aI-1000
aI-1000
aI-1000
aI-1000
aI-1000
aI0
aI0
aI0
aI0
aI0
aI0
aI-1000
aI-1000
aI-1000
aI0
aI0
aI0
aI0
aI0
aI1000
aI-1000
aI-1000
aI-1000
aI-1000
aI-1000
aI-1000
aI-1000
aI-1000
aI-1000
aI-1000
aI-1000
aI-1000
aI0
aI0
aI0
aI0
aI0
aI0
aI-1000
aI-1000
aI-1000
aI0
aI0
aI0
aI0
aI0
aI1000
aI-1000
aI0
aI0
aI-1000
aI0
aI0
aI-1000
aI0
aI0
aI-1000
aI0
aI0
aI-1000
aI0
aI0
aI-1000
aI0
aI0
aI-1000
aI0
aI0
aI-1000
aI0
aI0
aI-1000
aI0
aI1000
aI-1000
aI0
aI0
aI0
aI0
aI0
aI0
aI0
aI0
aI0
aI0
aI0
aI0
aI0
aI0
aI0
aI0
aI0
aI0
aI0
aI0
aI0
aI0
aI0
aI0
aI0
aI1000
aI-1000
aI0
aI0
aI0
aI0
aI0
aI0
aI0
aI0
aI0
aI0
aI0
aI0
aI0
aI0
aI0
aI0
aI0
aI0
aI0
aI0
aI0
aI0
aI0
aI0
aI0
aI1000
aI-1000
aI0
aI0
aI-1000
aI0
aI0
aI-1000
aI0
aI0
aI-1000
aI0
aI0
aI-1000
aI0
aI0
aI-1000
aI0
aI0
aI-1000
aI0
aI0
aI-1000
aI0
aI0
aI-1000
aI0
aI1000
aI-1000
aI0
aI0
aI0
aI0
aI0
aI0
aI0
aI0
aI0
aI0
aI0
aI0
aI0
aI0
aI0
aI0
aI0
aI0
aI0
aI0
aI0
aI0
aI0
aI0
aI0
aI1000
aI1000
aI1000
aI1000
aI1000
aI1000
aI1000
aI1000
aI1000
aI1000
aI1000
aI1000
aI1000
aI1000
aI1000
aI1000
aI1000
aI1000
aI1000
aI1000
aI1000
aI1000
aI1000
aI1000
aI1000
aI1000
aI1000
aI1000
aI-1000
aI-1000
aI-1000
aI-1000
aI-1000
aI-1000
aI-1000
aI-1000
aI-1000
aI-1000
aI-1000
aI-1000
aI-1000
aI-1000
aI-1000
aI-1000
aI-1000
aI-1000
aI-1000
aI-1000
aI-1000
aI-1000
aI-1000
aI-1000
aI-1000
aI-1000
aI1000
aI-1000
aI-1000
aI-1000
aI0
aI0
aI0
aI0
aI0
aI0
aI-1000
aI-1000
aI-1000
aI0
aI0
aI0
aI0
aI0
aI0
aI-1000
aI-1000
aI-1000
aI0
aI0
aI0
aI0
aI0
aI1000
aI-1000
aI-1000
aI-1000
aI0
aI0
aI0
aI0
aI0
aI0
aI-1000
aI-1000
aI-1000
aI0
aI0
aI0
aI0
aI0
aI0
aI-1000
aI-1000
aI-1000
aI0
aI0
aI0
aI0
aI0
aI1000
aI-1000
aI0
aI0
aI0
aI0
aI0
aI0
aI0
aI0
aI0
aI0
aI0
aI0
aI0
aI0
aI0
aI0
aI0
aI0
aI0
aI0
aI0
aI0
aI0
aI0
aI0
aI1000
aI-1000
aI0
aI0
aI0
aI0
aI0
aI0
aI0
aI0
aI0
aI0
aI0
aI0
aI0
aI0
aI0
aI0
aI0
aI0
aI0
aI0
aI0
aI0
aI0
aI0
aI0
aI1000
aI-1000
aI0
aI0
aI0
aI0
aI0
aI0
aI0
aI0
aI0
aI0
aI0
aI0
aI0
aI0
aI0
aI0
aI0
aI0
aI0
aI0
aI0
aI0
aI0
aI0
aI0
aI1000
aI-1000
aI0
aI0
aI0
aI0
aI0
aI0
aI0
aI0
aI0
aI0
aI0
aI0
aI0
aI0
aI0
aI0
aI0
aI0
aI0
aI0
aI0
aI0
aI0
aI0
aI0
aI1000
aI-1000
aI0
aI0
aI0
aI0
aI0
aI0
aI0
aI0
aI0
aI0
aI0
aI0
aI0
aI0
aI0
aI0
aI0
aI0
aI0
aI0
aI0
aI0
aI0
aI0
aI0
aI1000
aI-1000
aI0
aI0
aI0
aI0
aI0
aI0
aI0
aI0
aI0
aI0
aI0
aI0
aI0
aI0
aI0
aI0
aI0
aI0
aI0
aI0
aI0
aI0
aI0
aI0
aI0
aI1000
aI-1000
aI-1000
aI-1000
aI0
aI0
aI0
aI0
aI0
aI0
aI-1000
aI-1000
aI-1000
aI0
aI0
aI0
aI0
aI0
aI0
aI-1000
aI-1000
aI-1000
aI0
aI0
aI0
aI0
aI0
aI1000
aI-1000
aI-1000
aI-1000
aI0
aI0
aI0
aI0
aI0
aI0
aI-1000
aI-1000
aI-1000
aI0
aI0
aI0
aI0
aI0
aI0
aI-1000
aI-1000
aI-1000
aI0
aI0
aI0
aI0
aI0
aI1000
aI-1000
aI-1000
aI-1000
aI0
aI0
aI0
aI0
aI0
aI0
aI-1000
aI-1000
aI-1000
aI0
aI0
aI0
aI0
aI0
aI0
aI-1000
aI-1000
aI-1000
aI0
aI0
aI0
aI0
aI0
aI1000
aI-1000
aI0
aI0
aI0
aI0
aI0
aI0
aI0
aI0
aI0
aI0
aI0
aI0
aI0
aI0
aI0
aI0
aI0
aI0
aI0
aI0
aI0
aI0
aI0
aI0
aI0
aI1000
aI-1000
aI0
aI0
aI0
aI0
aI0
aI0
aI0
aI0
aI0
aI0
aI0
aI0
aI0
aI0
aI0
aI0
aI0
aI0
aI0
aI0
aI0
aI0
aI0
aI0
aI0
aI1000
aI-1000
aI0
aI0
aI0
aI0
aI0
aI0
aI0
aI0
aI0
aI0
aI0
aI0
aI0
aI0
aI0
aI0
aI0
aI0
aI0
aI0
aI0
aI0
aI0
aI0
aI0
aI1000
aI-1000
aI0
aI0
aI0
aI0
aI0
aI0
aI0
aI0
aI0
aI0
aI0
aI0
aI0
aI0
aI0
aI0
aI0
aI0
aI0
aI0
aI0
aI0
aI0
aI0
aI0
aI1000
aI-1000
aI0
aI0
aI0
aI0
aI0
aI0
aI0
aI0
aI0
aI0
aI0
aI0
aI0
aI0
aI0
aI0
aI0
aI0
aI0
aI0
aI0
aI0
aI0
aI0
aI0
aI1000
aI-1000
aI0
aI0
aI0
aI0
aI0
aI0
aI0
aI0
aI0
aI0
aI0
aI0
aI0
aI0
aI0
aI0
aI0
aI0
aI0
aI0
aI0
aI0
aI0
aI0
aI0
aI1000
aI-1000
aI-1000
aI-1000
aI0
aI0
aI0
aI0
aI0
aI0
aI-1000
aI-1000
aI-1000
aI0
aI0
aI0
aI0
aI0
aI0
aI-1000
aI-1000
aI-1000
aI0
aI0
aI0
aI0
aI0
aI1000
aI-1000
aI-1000
aI-1000
aI0
aI0
aI0
aI0
aI0
aI0
aI-1000
aI-1000
aI-1000
aI0
aI0
aI0
aI0
aI0
aI0
aI-1000
aI-1000
aI-1000
aI0
aI0
aI0
aI0
aI0
aI1000
aI-1000
aI-1000
aI-1000
aI0
aI0
aI0
aI0
aI0
aI0
aI-1000
aI-1000
aI-1000
aI0
aI0
aI0
aI0
aI0
aI0
aI-1000
aI-1000
aI-1000
aI0
aI0
aI0
aI0
aI0
aI1000
aI-1000
aI0
aI0
aI0
aI0
aI0
aI0
aI0
aI0
aI0
aI0
aI0
aI0
aI0
aI0
aI0
aI0
aI0
aI0
aI0
aI0
aI0
aI0
aI0
aI0
aI0
aI1000
aI-1000
aI0
aI0
aI0
aI0
aI0
aI0
aI0
aI0
aI0
aI0
aI0
aI0
aI0
aI0
aI0
aI0
aI0
aI0
aI0
aI0
aI0
aI0
aI0
aI0
aI0
aI1000
aI-1000
aI0
aI0
aI0
aI0
aI0
aI0
aI0
aI0
aI0
aI0
aI0
aI0
aI0
aI0
aI0
aI0
aI0
aI0
aI0
aI0
aI0
aI0
aI0
aI0
aI0
aI1000
aI-1000
aI0
aI0
aI0
aI0
aI0
aI0
aI0
aI0
aI0
aI0
aI0
aI0
aI0
aI0
aI0
aI0
aI0
aI0
aI0
aI0
aI0
aI0
aI0
aI0
aI0
aI1000
aI-1000
aI0
aI0
aI0
aI0
aI0
aI0
aI0
aI0
aI0
aI0
aI0
aI0
aI0
aI0
aI0
aI0
aI0
aI0
aI0
aI0
aI0
aI0
aI0
aI0
aI0
aI1000
aI1000
aI1000
aI1000
aI1000
aI1000
aI1000
aI1000
aI1000
aI1000
aI1000
aI1000
aI1000
aI1000
aI1000
aI1000
aI1000
aI1000
aI1000
aI1000
aI1000
aI1000
aI1000
aI1000
aI1000
aI1000
aI1000
aI1000
aI-1000
aI-1000
aI-1000
aI-1000
aI-1000
aI-1000
aI-1000
aI-1000
aI-1000
aI-1000
aI-1000
aI-1000
aI-1000
aI-1000
aI-1000
aI-1000
aI-1000
aI-1000
aI-1000
aI-1000
aI-1000
aI-1000
aI-1000
aI-1000
aI-1000
aI-1000
aI1000
aI-1000
aI-1000
aI-1000
aI0
aI0
aI0
aI0
aI0
aI0
aI-1000
aI-1000
aI-1000
aI0
aI0
aI0
aI0
aI0
aI0
aI-1000
aI-1000
aI-1000
aI0
aI0
aI0
aI0
aI0
aI1000
aI-1000
aI-1000
aI1000
aI0
aI0
aI1000
aI0
aI0
aI1000
aI-1000
aI-1000
aI1000
aI0
aI0
aI1000
aI0
aI0
aI1000
aI-1000
aI-1000
aI1000
aI0
aI0
aI1000
aI0
aI0
aI1000
aI-1000
aI0
aI0
aI0
aI0
aI0
aI0
aI0
aI0
aI0
aI0
aI0
aI0
aI0
aI0
aI0
aI0
aI0
aI0
aI0
aI0
aI0
aI0
aI0
aI0
aI0
aI1000
aI-1000
aI0
aI0
aI0
aI0
aI0
aI0
aI0
aI0
aI0
aI0
aI0
aI0
aI0
aI0
aI0
aI0
aI0
aI0
aI0
aI0
aI0
aI0
aI0
aI0
aI0
aI1000
aI-1000
aI0
aI1000
aI0
aI0
aI1000
aI0
aI0
aI1000
aI0
aI0
aI1000
aI0
aI0
aI1000
aI0
aI0
aI1000
aI0
aI0
aI1000
aI0
aI0
aI1000
aI0
aI0
aI1000
aI-1000
aI0
aI0
aI0
aI0
aI0
aI0
aI0
aI0
aI0
aI0
aI0
aI0
aI0
aI0
aI0
aI0
aI0
aI1000
aI1000
aI1000
aI1000
aI1000
aI1000
aI1000
aI1000
aI1000
aI-1000
aI0
aI0
aI0
aI0
aI0
aI0
aI0
aI0
aI0
aI0
aI0
aI0
aI0
aI0
aI0
aI0
aI0
aI1000
aI1000
aI1000
aI1000
aI1000
aI1000
aI1000
aI1000
aI1000
aI-1000
aI0
aI1000
aI0
aI0
aI1000
aI0
aI0
aI1000
aI0
aI0
aI1000
aI0
aI0
aI1000
aI0
aI0
aI1000
aI1000
aI1000
aI1000
aI1000
aI1000
aI1000
aI1000
aI1000
aI1000
aI-1000
aI-1000
aI-1000
aI0
aI0
aI0
aI0
aI0
aI0
aI-1000
aI-1000
aI-1000
aI0
aI0
aI0
aI0
aI0
aI0
aI-1000
aI-1000
aI-1000
aI0
aI0
aI0
aI0
aI0
aI1000
aI-1000
aI-1000
aI-1000
aI0
aI0
aI0
aI0
aI0
aI0
aI-1000
aI-1000
aI-1000
aI0
aI0
aI0
aI0
aI0
aI0
aI-1000
aI-1000
aI-1000
aI0
aI0
aI0
aI0
aI0
aI1000
aI-1000
aI-1000
aI1000
aI0
aI0
aI1000
aI0
aI0
aI1000
aI-1000
aI-1000
aI1000
aI0
aI0
aI1000
aI0
aI0
aI1000
aI-1000
aI-1000
aI1000
aI0
aI0
aI1000
aI0
aI0
aI1000
aI-1000
aI0
aI0
aI0
aI0
aI0
aI0
aI0
aI0
aI0
aI0
aI0
aI0
aI0
aI0
aI0
aI0
aI0
aI0
aI0
aI0
aI0
aI0
aI0
aI0
aI0
aI1000
aI-1000
aI0
aI0
aI0
aI0
aI0
aI0
aI0
aI0
aI0
aI0
aI0
aI0
aI0
aI0
aI0
aI0
aI0
aI0
aI0
aI0
aI0
aI0
aI0
aI0
aI0
aI1000
aI-1000
aI0
aI1000
aI0
aI0
aI1000
aI0
aI0
aI1000
aI0
aI0
aI1000
aI0
aI0
aI1000
aI0
aI0
aI1000
aI0
aI0
aI1000
aI0
aI0
aI1000
aI0
aI0
aI1000
aI-1000
aI0
aI0
aI0
aI0
aI0
aI0
aI0
aI0
aI0
aI0
aI0
aI0
aI0
aI0
aI0
aI0
aI0
aI1000
aI1000
aI1000
aI1000
aI1000
aI1000
aI1000
aI1000
aI1000
aI-1000
aI0
aI0
aI0
aI0
aI0
aI0
aI0
aI0
aI0
aI0
aI0
aI0
aI0
aI0
aI0
aI0
aI0
aI1000
aI1000
aI1000
aI1000
aI1000
aI1000
aI1000
aI1000
aI1000
aI-1000
aI0
aI1000
aI0
aI0
aI1000
aI0
aI0
aI1000
aI0
aI0
aI1000
aI0
aI0
aI1000
aI0
aI0
aI1000
aI1000
aI1000
aI1000
aI1000
aI1000
aI1000
aI1000
aI1000
aI1000
aI-1000
aI-1000
aI-1000
aI0
aI0
aI0
aI0
aI0
aI0
aI-1000
aI-1000
aI-1000
aI0
aI0
aI0
aI0
aI0
aI0
aI-1000
aI-1000
aI-1000
aI0
aI0
aI0
aI0
aI0
aI1000
aI-1000
aI-1000
aI-1000
aI0
aI0
aI0
aI0
aI0
aI0
aI-1000
aI-1000
aI-1000
aI0
aI0
aI0
aI0
aI0
aI0
aI-1000
aI-1000
aI-1000
aI0
aI0
aI0
aI0
aI0
aI1000
aI-1000
aI-1000
aI1000
aI0
aI0
aI1000
aI0
aI0
aI1000
aI-1000
aI-1000
aI1000
aI0
aI0
aI1000
aI0
aI0
aI1000
aI-1000
aI-1000
aI1000
aI0
aI0
aI1000
aI0
aI0
aI1000
aI-1000
aI0
aI0
aI0
aI0
aI0
aI0
aI0
aI0
aI0
aI0
aI0
aI0
aI0
aI0
aI0
aI0
aI0
aI0
aI0
aI0
aI0
aI0
aI0
aI0
aI0
aI1000
aI-1000
aI0
aI0
aI0
aI0
aI0
aI0
aI0
aI0
aI0
aI0
aI0
aI0
aI0
aI0
aI0
aI0
aI0
aI0
aI0
aI0
aI0
aI0
aI0
aI0
aI0
aI1000
aI-1000
aI0
aI1000
aI0
aI0
aI1000
aI0
aI0
aI1000
aI0
aI0
aI1000
aI0
aI0
aI1000
aI0
aI0
aI1000
aI0
aI0
aI1000
aI0
aI0
aI1000
aI0
aI0
aI1000
aI-1000
aI0
aI0
aI0
aI0
aI0
aI0
aI0
aI0
aI0
aI0
aI0
aI0
aI0
aI0
aI0
aI0
aI0
aI1000
aI1000
aI1000
aI1000
aI1000
aI1000
aI1000
aI1000
aI1000
aI-1000
aI0
aI0
aI0
aI0
aI0
aI0
aI0
aI0
aI0
aI0
aI0
aI0
aI0
aI0
aI0
aI0
aI0
aI1000
aI1000
aI1000
aI1000
aI1000
aI1000
aI1000
aI1000
aI1000
aI1000
aI1000
aI1000
aI1000
aI1000
aI1000
aI1000
aI1000
aI1000
aI1000
aI1000
aI1000
aI1000
aI1000
aI1000
aI1000
aI1000
aI1000
aI1000
aI1000
aI1000
aI1000
aI1000
aI1000
aI1000
aI1000
aI1000
aI-1000
aI-1000
aI-1000
aI-1000
aI-1000
aI-1000
aI-1000
aI-1000
aI-1000
aI-1000
aI-1000
aI-1000
aI-1000
aI-1000
aI-1000
aI-1000
aI-1000
aI-1000
aI-1000
aI-1000
aI-1000
aI-1000
aI-1000
aI-1000
aI-1000
aI-1000
aI1000
aI-1000
aI-1000
aI-1000
aI-1000
aI-1000
aI-1000
aI-1000
aI-1000
aI-1000
aI0
aI0
aI0
aI0
aI0
aI0
aI0
aI0
aI0
aI0
aI0
aI0
aI0
aI0
aI0
aI0
aI0
aI1000
aI-1000
aI-1000
aI-1000
aI-1000
aI-1000
aI-1000
aI-1000
aI-1000
aI-1000
aI0
aI0
aI0
aI0
aI0
aI0
aI0
aI0
aI0
aI0
aI0
aI0
aI0
aI0
aI0
aI0
aI0
aI1000
aI-1000
aI0
aI0
aI-1000
aI0
aI0
aI-1000
aI0
aI0
aI-1000
aI0
aI0
aI-1000
aI0
aI0
aI-1000
aI0
aI0
aI-1000
aI0
aI0
aI-1000
aI0
aI0
aI-1000
aI0
aI1000
aI-1000
aI0
aI0
aI0
aI0
aI0
aI0
aI0
aI0
aI0
aI0
aI0
aI0
aI0
aI0
aI0
aI0
aI0
aI0
aI0
aI0
aI0
aI0
aI0
aI0
aI0
aI1000
aI-1000
aI0
aI0
aI0
aI0
aI0
aI0
aI0
aI0
aI0
aI0
aI0
aI0
aI0
aI0
aI0
aI0
aI0
aI0
aI0
aI0
aI0
aI0
aI0
aI0
aI0
aI1000
aI-1000
aI0
aI0
aI-1000
aI0
aI0
aI-1000
aI0
aI0
aI-1000
aI0
aI0
aI-1000
aI0
aI0
aI-1000
aI0
aI0
aI-1000
aI0
aI0
aI-1000
aI0
aI0
aI-1000
aI0
aI1000
aI-1000
aI0
aI0
aI0
aI0
aI0
aI0
aI0
aI0
aI0
aI0
aI0
aI0
aI0
aI0
aI0
aI0
aI0
aI0
aI0
aI0
aI0
aI0
aI0
aI0
aI0
aI1000
aI-1000
aI0
aI0
aI0
aI0
aI0
aI0
aI0
aI0
aI0
aI0
aI0
aI0
aI0
aI0
aI0
aI0
aI0
aI0
aI0
aI0
aI0
aI0
aI0
aI0
aI0
aI1000
aI-1000
aI-1000
aI-1000
aI-1000
aI-1000
aI-1000
aI-1000
aI-1000
aI-1000
aI-1000
aI0
aI0
aI-1000
aI0
aI0
aI-1000
aI0
aI0
aI-1000
aI0
aI0
aI-1000
aI0
aI0
aI-1000
aI0
aI1000
aI-1000
aI-1000
aI-1000
aI-1000
aI-1000
aI-1000
aI-1000
aI-1000
aI-1000
aI0
aI0
aI0
aI0
aI0
aI0
aI0
aI0
aI0
aI0
aI0
aI0
aI0
aI0
aI0
aI0
aI0
aI1000
aI-1000
aI-1000
aI-1000
aI-1000
aI-1000
aI-1000
aI-1000
aI-1000
aI-1000
aI0
aI0
aI0
aI0
aI0
aI0
aI0
aI0
aI0
aI0
aI0
aI0
aI0
aI0
aI0
aI0
aI0
aI1000
aI-1000
aI0
aI0
aI-1000
aI0
aI0
aI-1000
aI0
aI0
aI-1000
aI0
aI0
aI-1000
aI0
aI0
aI-1000
aI0
aI0
aI-1000
aI0
aI0
aI-1000
aI0
aI0
aI-1000
aI0
aI1000
aI-1000
aI0
aI0
aI0
aI0
aI0
aI0
aI0
aI0
aI0
aI0
aI0
aI0
aI0
aI0
aI0
aI0
aI0
aI0
aI0
aI0
aI0
aI0
aI0
aI0
aI0
aI1000
aI-1000
aI0
aI0
aI0
aI0
aI0
aI0
aI0
aI0
aI0
aI0
aI0
aI0
aI0
aI0
aI0
aI0
aI0
aI0
aI0
aI0
aI0
aI0
aI0
aI0
aI0
aI1000
aI-1000
aI0
aI0
aI-1000
aI0
aI0
aI-1000
aI0
aI0
aI-1000
aI0
aI0
aI-1000
aI0
aI0
aI-1000
aI0
aI0
aI-1000
aI0
aI0
aI-1000
aI0
aI0
aI-1000
aI0
aI1000
aI-1000
aI0
aI0
aI0
aI0
aI0
aI0
aI0
aI0
aI0
aI0
aI0
aI0
aI0
aI0
aI0
aI0
aI0
aI0
aI0
aI0
aI0
aI0
aI0
aI0
aI0
aI1000
aI-1000
aI0
aI0
aI0
aI0
aI0
aI0
aI0
aI0
aI0
aI0
aI0
aI0
aI0
aI0
aI0
aI0
aI0
aI0
aI0
aI0
aI0
aI0
aI0
aI0
aI0
aI1000
aI-1000
aI-1000
aI-1000
aI-1000
aI-1000
aI-1000
aI-1000
aI-1000
aI-1000
aI-1000
aI0
aI0
aI-1000
aI0
aI0
aI-1000
aI0
aI0
aI-1000
aI0
aI0
aI-1000
aI0
aI0
aI-1000
aI0
aI1000
aI-1000
aI-1000
aI-1000
aI-1000
aI-1000
aI-1000
aI-1000
aI-1000
aI-1000
aI0
aI0
aI0
aI0
aI0
aI0
aI0
aI0
aI0
aI0
aI0
aI0
aI0
aI0
aI0
aI0
aI0
aI1000
aI-1000
aI-1000
aI-1000
aI-1000
aI-1000
aI-1000
aI-1000
aI-1000
aI-1000
aI0
aI0
aI0
aI0
aI0
aI0
aI0
aI0
aI0
aI0
aI0
aI0
aI0
aI0
aI0
aI0
aI0
aI1000
aI-1000
aI0
aI0
aI-1000
aI0
aI0
aI-1000
aI0
aI0
aI-1000
aI0
aI0
aI-1000
aI0
aI0
aI-1000
aI0
aI0
aI-1000
aI0
aI0
aI-1000
aI0
aI0
aI-1000
aI0
aI1000
aI-1000
aI0
aI0
aI0
aI0
aI0
aI0
aI0
aI0
aI0
aI0
aI0
aI0
aI0
aI0
aI0
aI0
aI0
aI0
aI0
aI0
aI0
aI0
aI0
aI0
aI0
aI1000
aI-1000
aI0
aI0
aI0
aI0
aI0
aI0
aI0
aI0
aI0
aI0
aI0
aI0
aI0
aI0
aI0
aI0
aI0
aI0
aI0
aI0
aI0
aI0
aI0
aI0
aI0
aI1000
aI-1000
aI0
aI0
aI-1000
aI0
aI0
aI-1000
aI0
aI0
aI-1000
aI0
aI0
aI-1000
aI0
aI0
aI-1000
aI0
aI0
aI-1000
aI0
aI0
aI-1000
aI0
aI0
aI-1000
aI0
aI1000
aI-1000
aI0
aI0
aI0
aI0
aI0
aI0
aI0
aI0
aI0
aI0
aI0
aI0
aI0
aI0
aI0
aI0
aI0
aI0
aI0
aI0
aI0
aI0
aI0
aI0
aI0
aI1000
aI1000
aI1000
aI1000
aI1000
aI1000
aI1000
aI1000
aI1000
aI1000
aI1000
aI1000
aI1000
aI1000
aI1000
aI1000
aI1000
aI1000
aI1000
aI1000
aI1000
aI1000
aI1000
aI1000
aI1000
aI1000
aI1000
aI1000
aI-1000
aI-1000
aI-1000
aI-1000
aI-1000
aI-1000
aI-1000
aI-1000
aI-1000
aI-1000
aI-1000
aI-1000
aI-1000
aI-1000
aI-1000
aI-1000
aI-1000
aI-1000
aI-1000
aI-1000
aI-1000
aI-1000
aI-1000
aI-1000
aI-1000
aI-1000
aI1000
aI-1000
aI0
aI0
aI0
aI0
aI0
aI0
aI0
aI0
aI0
aI0
aI0
aI0
aI0
aI0
aI0
aI0
aI0
aI0
aI0
aI0
aI0
aI0
aI0
aI0
aI0
aI1000
aI-1000
aI0
aI0
aI0
aI0
aI0
aI0
aI0
aI0
aI0
aI0
aI0
aI0
aI0
aI0
aI0
aI0
aI0
aI0
aI0
aI0
aI0
aI0
aI0
aI0
aI0
aI1000
aI-1000
aI0
aI0
aI0
aI0
aI0
aI0
aI0
aI0
aI0
aI0
aI0
aI0
aI0
aI0
aI0
aI0
aI0
aI0
aI0
aI0
aI0
aI0
aI0
aI0
aI0
aI1000
aI-1000
aI0
aI0
aI0
aI0
aI0
aI0
aI0
aI0
aI0
aI0
aI0
aI0
aI0
aI0
aI0
aI0
aI0
aI0
aI0
aI0
aI0
aI0
aI0
aI0
aI0
aI1000
aI-1000
aI0
aI0
aI0
aI0
aI0
aI0
aI0
aI0
aI0
aI0
aI0
aI0
aI0
aI0
aI0
aI0
aI0
aI0
aI0
aI0
aI0
aI0
aI0
aI0
aI0
aI1000
aI-1000
aI0
aI0
aI0
aI0
aI0
aI0
aI0
aI0
aI0
aI0
aI0
aI0
aI0
aI0
aI0
aI0
aI0
aI0
aI0
aI0
aI0
aI0
aI0
aI0
aI0
aI1000
aI-1000
aI0
aI0
aI0
aI0
aI0
aI0
aI0
aI0
aI0
aI0
aI0
aI0
aI0
aI0
aI0
aI0
aI0
aI0
aI0
aI0
aI0
aI0
aI0
aI0
aI0
aI1000
aI-1000
aI0
aI0
aI0
aI0
aI0
aI0
aI0
aI0
aI0
aI0
aI0
aI0
aI0
aI0
aI0
aI0
aI0
aI0
aI0
aI0
aI0
aI0
aI0
aI0
aI0
aI1000
aI-1000
aI0
aI0
aI0
aI0
aI0
aI0
aI0
aI0
aI0
aI0
aI0
aI0
aI0
aI0
aI0
aI0
aI0
aI0
aI0
aI0
aI0
aI0
aI0
aI0
aI0
aI1000
aI-1000
aI0
aI0
aI0
aI0
aI0
aI0
aI0
aI0
aI0
aI0
aI0
aI0
aI0
aI0
aI0
aI0
aI0
aI0
aI0
aI0
aI0
aI0
aI0
aI0
aI0
aI1000
aI-1000
aI0
aI0
aI0
aI0
aI0
aI0
aI0
aI0
aI0
aI0
aI0
aI0
aI0
aI0
aI0
aI0
aI0
aI0
aI0
aI0
aI0
aI0
aI0
aI0
aI0
aI1000
aI-1000
aI0
aI0
aI0
aI0
aI0
aI0
aI0
aI0
aI0
aI0
aI0
aI0
aI0
aI0
aI0
aI0
aI0
aI0
aI0
aI0
aI0
aI0
aI0
aI0
aI0
aI1000
aI-1000
aI0
aI0
aI0
aI0
aI0
aI0
aI0
aI0
aI0
aI0
aI0
aI0
aF7.8125
aI0
aI0
aI0
aI0
aI0
aI0
aI0
aI0
aI0
aI0
aI0
aI0
aI1000
aI-1000
aI0
aI0
aI0
aI0
aI0
aI0
aI0
aI0
aI0
aI0
aI0
aI0
aI0
aI0
aI0
aI0
aI0
aI0
aI0
aI0
aI0
aI0
aI0
aI0
aI0
aI1000
aI-1000
aI0
aI0
aI0
aI0
aI0
aI0
aI0
aI0
aI0
aI0
aI0
aI0
aI0
aI0
aI0
aI0
aI0
aI0
aI0
aI0
aI0
aI0
aI0
aI0
aI0
aI1000
aI-1000
aI0
aI0
aI0
aI0
aI0
aI0
aI0
aI0
aI0
aI0
aI0
aI0
aI0
aI0
aI0
aI0
aI0
aI0
aI0
aI0
aI0
aI0
aI0
aI0
aI0
aI1000
aI-1000
aI0
aI0
aI0
aI0
aI0
aI0
aI0
aI0
aI0
aI0
aI0
aI0
aI0
aI0
aI0
aI0
aI0
aI0
aI0
aI0
aI0
aI0
aI0
aI0
aI0
aI1000
aI-1000
aI0
aI0
aI0
aI0
aI0
aI0
aI0
aI0
aI0
aI0
aI0
aI0
aI0
aI0
aI0
aI0
aI0
aI0
aI0
aI0
aI0
aI0
aI0
aI0
aI0
aI1000
aI-1000
aI0
aI0
aI0
aI0
aI0
aI0
aI0
aI0
aI0
aI0
aI0
aI0
aI0
aI0
aI0
aI0
aI0
aI0
aI0
aI0
aI0
aI0
aI0
aI0
aI0
aI1000
aI-1000
aI0
aI0
aI0
aI0
aI0
aI0
aI0
aI0
aI0
aI0
aI0
aI0
aI0
aI0
aI0
aI0
aI0
aI0
aI0
aI0
aI0
aI0
aI0
aI0
aI0
aI1000
aI-1000
aI0
aI0
aI0
aI0
aI0
aI0
aI0
aI0
aI0
aI0
aI0
aI0
aI0
aI0
aI0
aI0
aI0
aI0
aI0
aI0
aI0
aI0
aI0
aI0
aI0
aI1000
aI-1000
aI0
aI0
aI0
aI0
aI0
aI0
aI0
aI0
aI0
aI0
aI0
aI0
aI0
aI0
aI0
aI0
aI0
aI0
aI0
aI0
aI0
aI0
aI0
aI0
aI0
aI1000
aI-1000
aI0
aI0
aI0
aI0
aI0
aI0
aI0
aI0
aI0
aI0
aI0
aI0
aI0
aI0
aI0
aI0
aI0
aI0
aI0
aI0
aI0
aI0
aI0
aI0
aI0
aI1000
aI-1000
aI0
aI0
aI0
aI0
aI0
aI0
aI0
aI0
aI0
aI0
aI0
aI0
aI0
aI0
aI0
aI0
aI0
aI0
aI0
aI0
aI0
aI0
aI0
aI0
aI0
aI1000
aI-1000
aI0
aI0
aI0
aI0
aI0
aI0
aI0
aI0
aI0
aI0
aI0
aI0
aI0
aI0
aI0
aI0
aI0
aI0
aI0
aI0
aI0
aI0
aI0
aI0
aI0
aI1000
aI1000
aI1000
aI1000
aI1000
aI1000
aI1000
aI1000
aI1000
aI1000
aI1000
aI1000
aI1000
aI1000
aI1000
aI1000
aI1000
aI1000
aI1000
aI1000
aI1000
aI1000
aI1000
aI1000
aI1000
aI1000
aI1000
aI1000
aI-1000
aI-1000
aI-1000
aI-1000
aI-1000
aI-1000
aI-1000
aI-1000
aI-1000
aI-1000
aI-1000
aI-1000
aI-1000
aI-1000
aI-1000
aI-1000
aI-1000
aI-1000
aI-1000
aI-1000
aI-1000
aI-1000
aI-1000
aI-1000
aI-1000
aI-1000
aI1000
aI-1000
aI0
aI0
aI0
aI0
aI0
aI0
aI0
aI0
aI0
aI0
aI0
aI0
aI0
aI0
aI0
aI0
aI0
aI0
aI0
aI0
aI0
aI0
aI0
aI0
aI0
aI1000
aI-1000
aI0
aI1000
aI0
aI0
aI1000
aI0
aI0
aI1000
aI0
aI0
aI1000
aI0
aI0
aI1000
aI0
aI0
aI1000
aI0
aI0
aI1000
aI0
aI0
aI1000
aI0
aI0
aI1000
aI-1000
aI0
aI0
aI0
aI0
aI0
aI0
aI0
aI0
aI0
aI0
aI0
aI0
aI0
aI0
aI0
aI0
aI0
aI0
aI0
aI0
aI0
aI0
aI0
aI0
aI0
aI1000
aI-1000
aI0
aI0
aI0
aI0
aI0
aI0
aI0
aI0
aI0
aI0
aI0
aI0
aI0
aI0
aI0
aI0
aI0
aI0
aI0
aI0
aI0
aI0
aI0
aI0
aI0
aI1000
aI-1000
aI0
aI1000
aI0
aI0
aI1000
aI0
aI0
aI1000
aI0
aI0
aI1000
aI0
aI0
aI1000
aI0
aI0
aI1000
aI0
aI0
aI1000
aI0
aI0
aI1000
aI0
aI0
aI1000
aI-1000
aI0
aI0
aI0
aI0
aI0
aI0
aI0
aI0
aI0
aI0
aI0
aI0
aI0
aI0
aI0
aI0
aI0
aI1000
aI1000
aI1000
aI1000
aI1000
aI1000
aI1000
aI1000
aI1000
aI-1000
aI0
aI0
aI0
aI0
aI0
aI0
aI0
aI0
aI0
aI0
aI0
aI0
aI0
aI0
aI0
aI0
aI0
aI1000
aI1000
aI1000
aI1000
aI1000
aI1000
aI1000
aI1000
aI1000
aI-1000
aI0
aI1000
aI0
aI0
aI1000
aI0
aI0
aI1000
aI0
aI0
aI1000
aI0
aI0
aI1000
aI0
aI0
aI1000
aI1000
aI1000
aI1000
aI1000
aI1000
aI1000
aI1000
aI1000
aI1000
aI-1000
aI0
aI0
aI0
aI0
aI0
aI0
aI0
aI0
aI0
aI0
aI0
aI0
aI0
aI0
aI0
aI0
aI0
aI0
aI0
aI0
aI0
aI0
aI0
aI0
aI0
aI1000
aI-1000
aI0
aI0
aI0
aI0
aI0
aI0
aI0
aI0
aI0
aI0
aI0
aI0
aI0
aI0
aI0
aI0
aI0
aI0
aI0
aI0
aI0
aI0
aI0
aI0
aI0
aI1000
aI-1000
aI0
aI1000
aI0
aI0
aI1000
aI0
aI0
aI1000
aI0
aI0
aI1000
aI0
aI0
aI1000
aI0
aI0
aI1000
aI0
aI0
aI1000
aI0
aI0
aI1000
aI0
aI0
aI1000
aI-1000
aI0
aI0
aI0
aI0
aI0
aI0
aI0
aI0
aI0
aI0
aI0
aI0
aI0
aI0
aI0
aI0
aI0
aI0
aI0
aI0
aI0
aI0
aI0
aI0
aI0
aI1000
aI-1000
aI0
aI0
aI0
aI0
aI0
aI0
aI0
aI0
aI0
aI0
aI0
aI0
aI0
aI0
aI0
aI0
aI0
aI0
aI0
aI0
aI0
aI0
aI0
aI0
aI0
aI1000
aI-1000
aI0
aI1000
aI0
aI0
aI1000
aI0
aI0
aI1000
aI0
aI0
aI1000
aI0
aI0
aI1000
aI0
aI0
aI1000
aI0
aI0
aI1000
aI0
aI0
aI1000
aI0
aI0
aI1000
aI-1000
aI0
aI0
aI0
aI0
aI0
aI0
aI0
aI0
aI0
aI0
aI0
aI0
aI0
aI0
aI0
aI0
aI0
aI1000
aI1000
aI1000
aI1000
aI1000
aI1000
aI1000
aI1000
aI1000
aI-1000
aI0
aI0
aI0
aI0
aI0
aI0
aI0
aI0
aI0
aI0
aI0
aI0
aI0
aI0
aI0
aI0
aI0
aI1000
aI1000
aI1000
aI1000
aI1000
aI1000
aI1000
aI1000
aI1000
aI-1000
aI0
aI1000
aI0
aI0
aI1000
aI0
aI0
aI1000
aI0
aI0
aI1000
aI0
aI0
aI1000
aI0
aI0
aI1000
aI1000
aI1000
aI1000
aI1000
aI1000
aI1000
aI1000
aI1000
aI1000
aI-1000
aI0
aI0
aI0
aI0
aI0
aI0
aI0
aI0
aI0
aI0
aI0
aI0
aI0
aI0
aI0
aI0
aI0
aI0
aI0
aI0
aI0
aI0
aI0
aI0
aI0
aI1000
aI-1000
aI0
aI0
aI0
aI0
aI0
aI0
aI0
aI0
aI0
aI0
aI0
aI0
aI0
aI0
aI0
aI0
aI0
aI0
aI0
aI0
aI0
aI0
aI0
aI0
aI0
aI1000
aI-1000
aI0
aI1000
aI0
aI0
aI1000
aI0
aI0
aI1000
aI0
aI0
aI1000
aI0
aI0
aI1000
aI0
aI0
aI1000
aI0
aI0
aI1000
aI0
aI0
aI1000
aI0
aI0
aI1000
aI-1000
aI0
aI0
aI0
aI0
aI0
aI0
aI0
aI0
aI0
aI0
aI0
aI0
aI0
aI0
aI0
aI0
aI0
aI0
aI0
aI0
aI0
aI0
aI0
aI0
aI0
aI1000
aI-1000
aI0
aI0
aI0
aI0
aI0
aI0
aI0
aI0
aI0
aI0
aI0
aI0
aI0
aI0
aI0
aI0
aI0
aI0
aI0
aI0
aI0
aI0
aI0
aI0
aI0
aI1000
aI-1000
aI0
aI1000
aI0
aI0
aI1000
aI0
aI0
aI1000
aI0
aI0
aI1000
aI0
aI0
aI1000
aI0
aI0
aI1000
aI0
aI0
aI1000
aI0
aI0
aI1000
aI0
aI0
aI1000
aI-1000
aI0
aI0
aI0
aI0
aI0
aI0
aI0
aI0
aI0
aI0
aI0
aI0
aI0
aI0
aI0
aI0
aI0
aI1000
aI1000
aI1000
aI1000
aI1000
aI1000
aI1000
aI1000
aI1000
aI-1000
aI0
aI0
aI0
aI0
aI0
aI0
aI0
aI0
aI0
aI0
aI0
aI0
aI0
aI0
aI0
aI0
aI0
aI1000
aI1000
aI1000
aI1000
aI1000
aI1000
aI1000
aI1000
aI1000
aI1000
aI1000
aI1000
aI1000
aI1000
aI1000
aI1000
aI1000
aI1000
aI1000
aI1000
aI1000
aI1000
aI1000
aI1000
aI1000
aI1000
aI1000
aI1000
aI1000
aI1000
aI1000
aI1000
aI1000
aI1000
aI1000
aI1000
aI-1000
aI-1000
aI-1000
aI-1000
aI-1000
aI-1000
aI-1000
aI-1000
aI-1000
aI-1000
aI-1000
aI-1000
aI-1000
aI-1000
aI-1000
aI-1000
aI-1000
aI-1000
aI-1000
aI-1000
aI-1000
aI-1000
aI-1000
aI-1000
aI-1000
aI-1000
aI1000
aI-1000
aI-1000
aI-1000
aI-1000
aI-1000
aI-1000
aI-1000
aI-1000
aI-1000
aI0
aI0
aI0
aI0
aI0
aI0
aI0
aI0
aI0
aI0
aI0
aI0
aI0
aI0
aI0
aI0
aI0
aI1000
aI-1000
aI-1000
aI-1000
aI-1000
aI-1000
aI-1000
aI-1000
aI-1000
aI-1000
aI0
aI0
aI0
aI0
aI0
aI0
aI0
aI0
aI0
aI0
aI0
aI0
aI0
aI0
aI0
aI0
aI0
aI1000
aI-1000
aI0
aI0
aI-1000
aI0
aI0
aI-1000
aI0
aI0
aI-1000
aI0
aI0
aI-1000
aI0
aI0
aI-1000
aI0
aI0
aI-1000
aI0
aI0
aI-1000
aI0
aI0
aI-1000
aI0
aI1000
aI-1000
aI0
aI0
aI0
aI0
aI0
aI0
aI0
aI0
aI0
aI0
aI0
aI0
aI0
aI0
aI0
aI0
aI0
aI0
aI0
aI0
aI0
aI0
aI0
aI0
aI0
aI1000
aI-1000
aI0
aI0
aI0
aI0
aI0
aI0
aI0
aI0
aI0
aI0
aI0
aI0
aI0
aI0
aI0
aI0
aI0
aI0
aI0
aI0
aI0
aI0
aI0
aI0
aI0
aI1000
aI-1000
aI0
aI0
aI-1000
aI0
aI0
aI1000
aI1000
aI1000
aI-1000
aI0
aI0
aI-1000
aI0
aI0
aI1000
aI1000
aI1000
aI-1000
aI0
aI0
aI-1000
aI0
aI0
aI1000
aI1000
aI1000
aI-1000
aI0
aI0
aI0
aI0
aI0
aI1000
aI1000
aI1000
aI0
aI0
aI0
aI0
aI0
aI0
aI1000
aI1000
aI1000
aI0
aI0
aI0
aI0
aI0
aI0
aI1000
aI1000
aI1000
aI-1000
aI0
aI0
aI0
aI0
aI0
aI1000
aI1000
aI1000
aI0
aI0
aI0
aI0
aI0
aI0
aI1000
aI1000
aI1000
aI0
aI0
aI0
aI0
aI0
aI0
aI1000
aI1000
aI1000
aI-1000
aI-1000
aI-1000
aI-1000
aI-1000
aI-1000
aI-1000
aI-1000
aI-1000
aI-1000
aI0
aI0
aI-1000
aI0
aI0
aI-1000
aI0
aI0
aI-1000
aI0
aI0
aI-1000
aI0
aI0
aI-1000
aI0
aI1000
aI-1000
aI-1000
aI-1000
aI-1000
aI-1000
aI-1000
aI-1000
aI-1000
aI-1000
aI0
aI0
aI0
aI0
aI0
aI0
aI0
aI0
aI0
aI0
aI0
aI0
aI0
aI0
aI0
aI0
aI0
aI1000
aI-1000
aI-1000
aI-1000
aI-1000
aI-1000
aI-1000
aI-1000
aI-1000
aI-1000
aI0
aI0
aI0
aI0
aI0
aI0
aI0
aI0
aI0
aI0
aI0
aI0
aI0
aI0
aI0
aI0
aI0
aI1000
aI-1000
aI0
aI0
aI-1000
aI0
aI0
aI-1000
aI0
aI0
aI-1000
aI0
aI0
aI-1000
aI0
aI0
aI-1000
aI0
aI0
aI-1000
aI0
aI0
aI-1000
aI0
aI0
aI-1000
aI0
aI1000
aI-1000
aI0
aI0
aI0
aI0
aI0
aI0
aI0
aI0
aI0
aI0
aI0
aI0
aI0
aI0
aI0
aI0
aI0
aI0
aI0
aI0
aI0
aI0
aI0
aI0
aI0
aI1000
aI-1000
aI0
aI0
aI0
aI0
aI0
aI0
aI0
aI0
aI0
aI0
aI0
aI0
aI0
aI0
aI0
aI0
aI0
aI0
aI0
aI0
aI0
aI0
aI0
aI0
aI0
aI1000
aI-1000
aI0
aI0
aI-1000
aI0
aI0
aI1000
aI1000
aI1000
aI-1000
aI0
aI0
aI-1000
aI0
aI0
aI1000
aI1000
aI1000
aI-1000
aI0
aI0
aI-1000
aI0
aI0
aI1000
aI1000
aI1000
aI-1000
aI0
aI0
aI0
aI0
aI0
aI1000
aI1000
aI1000
aI0
aI0
aI0
aI0
aI0
aI0
aI1000
aI1000
aI1000
aI0
aI0
aI0
aI0
aI0
aI0
aI1000
aI1000
aI1000
aI-1000
aI0
aI0
aI0
aI0
aI0
aI1000
aI1000
aI1000
aI0
aI0
aI0
aI0
aI0
aI0
aI1000
aI1000
aI1000
aI0
aI0
aI0
aI0
aI0
aI0
aI1000
aI1000
aI1000
aI-1000
aI-1000
aI-1000
aI-1000
aI-1000
aI-1000
aI-1000
aI-1000
aI-1000
aI-1000
aI0
aI0
aI-1000
aI0
aI0
aI-1000
aI0
aI0
aI-1000
aI0
aI0
aI-1000
aI0
aI0
aI-1000
aI0
aI1000
aI-1000
aI-1000
aI-1000
aI-1000
aI-1000
aI-1000
aI-1000
aI-1000
aI-1000
aI0
aI0
aI0
aI0
aI0
aI0
aI0
aI0
aI0
aI0
aI0
aI0
aI0
aI0
aI0
aI0
aI0
aI1000
aI-1000
aI-1000
aI-1000
aI-1000
aI-1000
aI-1000
aI-1000
aI-1000
aI-1000
aI0
aI0
aI0
aI0
aI0
aI0
aI0
aI0
aI0
aI0
aI0
aI0
aI0
aI0
aI0
aI0
aI0
aI1000
aI-1000
aI0
aI0
aI-1000
aI0
aI0
aI-1000
aI0
aI0
aI-1000
aI0
aI0
aI-1000
aI0
aI0
aI-1000
aI0
aI0
aI-1000
aI0
aI0
aI-1000
aI0
aI0
aI-1000
aI0
aI1000
aI-1000
aI0
aI0
aI0
aI0
aI0
aI0
aI0
aI0
aI0
aI0
aI0
aI0
aI0
aI0
aI0
aI0
aI0
aI0
aI0
aI0
aI0
aI0
aI0
aI0
aI0
aI1000
aI-1000
aI0
aI0
aI0
aI0
aI0
aI0
aI0
aI0
aI0
aI0
aI0
aI0
aI0
aI0
aI0
aI0
aI0
aI0
aI0
aI0
aI0
aI0
aI0
aI0
aI0
aI1000
aI-1000
aI0
aI0
aI-1000
aI0
aI0
aI1000
aI1000
aI1000
aI-1000
aI0
aI0
aI-1000
aI0
aI0
aI1000
aI1000
aI1000
aI-1000
aI0
aI0
aI-1000
aI0
aI0
aI1000
aI1000
aI1000
aI-1000
aI0
aI0
aI0
aI0
aI0
aI1000
aI1000
aI1000
aI0
aI0
aI0
aI0
aI0
aI0
aI1000
aI1000
aI1000
aI0
aI0
aI0
aI0
aI0
aI0
aI1000
aI1000
aI1000
aI1000
aI1000
aI1000
aI1000
aI1000
aI1000
aI1000
aI1000
aI1000
aI1000
aI1000
aI1000
aI1000
aI1000
aI1000
aI1000
aI1000
aI1000
aI1000
aI1000
aI1000
aI1000
aI1000
aI1000
aI1000
aI1000
aI1000
aI-1000
aI-1000
aI-1000
aI-1000
aI-1000
aI-1000
aI-1000
aI-1000
aI-1000
aI-1000
aI-1000
aI-1000
aI-1000
aI-1000
aI-1000
aI-1000
aI-1000
aI-1000
aI-1000
aI-1000
aI-1000
aI-1000
aI-1000
aI-1000
aI-1000
aI-1000
aI1000
aI-1000
aI0
aI0
aI0
aI0
aI0
aI0
aI0
aI0
aI0
aI0
aI0
aI0
aI0
aI0
aI0
aI0
aI0
aI0
aI0
aI0
aI0
aI0
aI0
aI0
aI0
aI1000
aI-1000
aI0
aI0
aI0
aI0
aI0
aI0
aI0
aI0
aI0
aI0
aI0
aI0
aI0
aI0
aI0
aI0
aI0
aI0
aI0
aI0
aI0
aI0
aI0
aI0
aI0
aI1000
aI-1000
aI0
aI0
aI0
aI0
aI0
aI0
aI0
aI0
aI0
aI0
aI0
aI0
aI0
aI0
aI0
aI0
aI0
aI0
aI0
aI0
aI0
aI0
aI0
aI0
aI0
aI1000
aI-1000
aI0
aI0
aI0
aI0
aI0
aI0
aI0
aI0
aI0
aI0
aI0
aI0
aI0
aI0
aI0
aI0
aI0
aI0
aI0
aI0
aI0
aI0
aI0
aI0
aI0
aI1000
aI-1000
aI0
aI0
aI0
aI0
aI0
aI0
aI0
aI0
aI0
aI0
aI0
aI0
aI0
aI0
aI0
aI0
aI0
aI0
aI0
aI0
aI0
aI0
aI0
aI0
aI0
aI1000
aI-1000
aI0
aI0
aI0
aI0
aI0
aI1000
aI1000
aI1000
aI0
aI0
aI0
aI0
aI0
aI0
aI1000
aI1000
aI1000
aI0
aI0
aI0
aI0
aI0
aI0
aI1000
aI1000
aI1000
aI-1000
aI0
aI0
aI0
aI0
aI0
aI1000
aI1000
aI1000
aI0
aI0
aI0
aI0
aI0
aI0
aI1000
aI1000
aI1000
aI0
aI0
aI0
aI0
aI0
aI0
aI1000
aI1000
aI1000
aI-1000
aI0
aI0
aI0
aI0
aI0
aI1000
aI1000
aI1000
aI0
aI0
aI0
aI0
aI0
aI0
aI1000
aI1000
aI1000
aI0
aI0
aI0
aI0
aI0
aI0
aI1000
aI1000
aI1000
aI-1000
aI0
aI0
aI0
aI0
aI0
aI0
aI0
aI0
aI0
aI0
aI0
aI0
aI0
aI0
aI0
aI0
aI0
aI0
aI0
aI0
aI0
aI0
aI0
aI0
aI0
aI1000
aI-1000
aI0
aI0
aI0
aI0
aI0
aI0
aI0
aI0
aI0
aI0
aI0
aI0
aI0
aI0
aI0
aI0
aI0
aI0
aI0
aI0
aI0
aI0
aI0
aI0
aI0
aI1000
aI-1000
aI0
aI0
aI0
aI0
aI0
aI0
aI0
aI0
aI0
aI0
aI0
aI0
aI0
aI0
aI0
aI0
aI0
aI0
aI0
aI0
aI0
aI0
aI0
aI0
aI0
aI1000
aI-1000
aI0
aI0
aI0
aI0
aI0
aI0
aI0
aI0
aI0
aI0
aI0
aI0
aI0
aI0
aI0
aI0
aI0
aI0
aI0
aI0
aI0
aI0
aI0
aI0
aI0
aI1000
aI-1000
aI0
aI0
aI0
aI0
aI0
aI0
aI0
aI0
aI0
aI0
aI0
aI0
aI0
aI0
aI0
aI0
aI0
aI0
aI0
aI0
aI0
aI0
aI0
aI0
aI0
aI1000
aI-1000
aI0
aI0
aI0
aI0
aI0
aI0
aI0
aI0
aI0
aI0
aI0
aI0
aI0
aI0
aI0
aI0
aI0
aI0
aI0
aI0
aI0
aI0
aI0
aI0
aI0
aI1000
aI-1000
aI0
aI0
aI0
aI0
aI0
aI1000
aI1000
aI1000
aI0
aI0
aI0
aI0
aI0
aI0
aI1000
aI1000
aI1000
aI0
aI0
aI0
aI0
aI0
aI0
aI1000
aI1000
aI1000
aI-1000
aI0
aI0
aI0
aI0
aI0
aI1000
aI1000
aI1000
aI0
aI0
aI0
aI0
aI0
aI0
aI1000
aI1000
aI1000
aI0
aI0
aI0
aI0
aI0
aI0
aI1000
aI1000
aI1000
aI-1000
aI0
aI0
aI0
aI0
aI0
aI1000
aI1000
aI1000
aI0
aI0
aI0
aI0
aI0
aI0
aI1000
aI1000
aI1000
aI0
aI0
aI0
aI0
aI0
aI0
aI1000
aI1000
aI1000
aI-1000
aI0
aI0
aI0
aI0
aI0
aI0
aI0
aI0
aI0
aI0
aI0
aI0
aI0
aI0
aI0
aI0
aI0
aI0
aI0
aI0
aI0
aI0
aI0
aI0
aI0
aI1000
aI-1000
aI0
aI0
aI0
aI0
aI0
aI0
aI0
aI0
aI0
aI0
aI0
aI0
aI0
aI0
aI0
aI0
aI0
aI0
aI0
aI0
aI0
aI0
aI0
aI0
aI0
aI1000
aI-1000
aI0
aI0
aI0
aI0
aI0
aI0
aI0
aI0
aI0
aI0
aI0
aI0
aI0
aI0
aI0
aI0
aI0
aI0
aI0
aI0
aI0
aI0
aI0
aI0
aI0
aI1000
aI-1000
aI0
aI0
aI0
aI0
aI0
aI0
aI0
aI0
aI0
aI0
aI0
aI0
aI0
aI0
aI0
aI0
aI0
aI0
aI0
aI0
aI0
aI0
aI0
aI0
aI0
aI1000
aI-1000
aI0
aI0
aI0
aI0
aI0
aI0
aI0
aI0
aI0
aI0
aI0
aI0
aI0
aI0
aI0
aI0
aI0
aI0
aI0
aI0
aI0
aI0
aI0
aI0
aI0
aI1000
aI-1000
aI0
aI0
aI0
aI0
aI0
aI0
aI0
aI0
aI0
aI0
aI0
aI0
aI0
aI0
aI0
aI0
aI0
aI0
aI0
aI0
aI0
aI0
aI0
aI0
aI0
aI1000
aI-1000
aI0
aI0
aI0
aI0
aI0
aI1000
aI1000
aI1000
aI0
aI0
aI0
aI0
aI0
aI0
aI1000
aI1000
aI1000
aI0
aI0
aI0
aI0
aI0
aI0
aI1000
aI1000
aI1000
aI-1000
aI0
aI0
aI0
aI0
aI0
aI1000
aI1000
aI1000
aI0
aI0
aI0
aI0
aI0
aI0
aI1000
aI1000
aI1000
aI0
aI0
aI0
aI0
aI0
aI0
aI1000
aI1000
aI1000
aI1000
aI1000
aI1000
aI1000
aI1000
aI1000
aI1000
aI1000
aI1000
aI1000
aI1000
aI1000
aI1000
aI1000
aI1000
aI1000
aI1000
aI1000
aI1000
aI1000
aI1000
aI1000
aI1000
aI1000
aI1000
aI1000
aI1000
aI-1000
aI-1000
aI-1000
aI-1000
aI-1000
aI-1000
aI-1000
aI-1000
aI-1000
aI-1000
aI-1000
aI-1000
aI-1000
aI-1000
aI-1000
aI-1000
aI-1000
aI-1000
aI-1000
aI-1000
aI-1000
aI-1000
aI-1000
aI-1000
aI-1000
aI-1000
aI1000
aI-1000
aI0
aI0
aI0
aI0
aI0
aI0
aI0
aI0
aI0
aI0
aI0
aI0
aI0
aI0
aI0
aI0
aI0
aI0
aI0
aI0
aI0
aI0
aI0
aI0
aI0
aI1000
aI-1000
aI0
aI1000
aI0
aI0
aI1000
aI0
aI0
aI1000
aI0
aI0
aI1000
aI0
aI0
aI1000
aI0
aI0
aI1000
aI0
aI0
aI1000
aI0
aI0
aI1000
aI0
aI0
aI1000
aI-1000
aI0
aI0
aI0
aI0
aI0
aI0
aI0
aI0
aI0
aI0
aI0
aI0
aI0
aI0
aI0
aI0
aI0
aI0
aI0
aI0
aI0
aI0
aI0
aI0
aI0
aI1000
aI-1000
aI0
aI0
aI0
aI0
aI0
aI0
aI0
aI0
aI0
aI0
aI0
aI0
aI0
aI0
aI0
aI0
aI0
aI0
aI0
aI0
aI0
aI0
aI0
aI0
aI0
aI1000
aI-1000
aI0
aI1000
aI0
aI0
aI1000
aI0
aI0
aI1000
aI0
aI0
aI1000
aI0
aI0
aI1000
aI0
aI0
aI1000
aI0
aI0
aI1000
aI0
aI0
aI1000
aI0
aI0
aI1000
aI-1000
aI0
aI0
aI0
aI0
aI0
aI1000
aI1000
aI1000
aI0
aI0
aI0
aI0
aI0
aI0
aI1000
aI1000
aI1000
aI1000
aI1000
aI1000
aI1000
aI1000
aI1000
aI1000
aI1000
aI1000
aI-1000
aI0
aI0
aI0
aI0
aI0
aI1000
aI1000
aI1000
aI0
aI0
aI0
aI0
aI0
aI0
aI1000
aI1000
aI1000
aI1000
aI1000
aI1000
aI1000
aI1000
aI1000
aI1000
aI1000
aI1000
aI-1000
aI0
aI1000
aI0
aI0
aI1000
aI1000
aI1000
aI1000
aI0
aI0
aI1000
aI0
aI0
aI1000
aI1000
aI1000
aI1000
aI1000
aI1000
aI1000
aI1000
aI1000
aI1000
aI1000
aI1000
aI1000
aI-1000
aI0
aI0
aI0
aI0
aI0
aI0
aI0
aI0
aI0
aI0
aI0
aI0
aI0
aI0
aI0
aI0
aI0
aI0
aI0
aI0
aI0
aI0
aI0
aI0
aI0
aI1000
aI-1000
aI0
aI0
aI0
aI0
aI0
aI0
aI0
aI0
aI0
aI0
aI0
aI0
aI0
aI0
aI0
aI0
aI0
aI0
aI0
aI0
aI0
aI0
aI0
aI0
aI0
aI1000
aI-1000
aI0
aI1000
aI0
aI0
aI1000
aI0
aI0
aI1000
aI0
aI0
aI1000
aI0
aI0
aI1000
aI0
aI0
aI1000
aI0
aI0
aI1000
aI0
aI0
aI1000
aI0
aI0
aI1000
aI-1000
aI0
aI0
aI0
aI0
aI0
aI0
aI0
aI0
aI0
aI0
aI0
aI0
aI0
aI0
aI0
aI0
aI0
aI0
aI0
aI0
aI0
aI0
aI0
aI0
aI0
aI1000
aI-1000
aI0
aI0
aI0
aI0
aI0
aI0
aI0
aI0
aI0
aI0
aI0
aI0
aI0
aI0
aI0
aI0
aI0
aI0
aI0
aI0
aI0
aI0
aI0
aI0
aI0
aI1000
aI-1000
aI0
aI1000
aI0
aI0
aI1000
aI0
aI0
aI1000
aI0
aI0
aI1000
aI0
aI0
aI1000
aI0
aI0
aI1000
aI0
aI0
aI1000
aI0
aI0
aI1000
aI0
aI0
aI1000
aI-1000
aI0
aI0
aI0
aI0
aI0
aI1000
aI1000
aI1000
aI0
aI0
aI0
aI0
aI0
aI0
aI1000
aI1000
aI1000
aI1000
aI1000
aI1000
aI1000
aI1000
aI1000
aI1000
aI1000
aI1000
aI-1000
aI0
aI0
aI0
aI0
aI0
aI1000
aI1000
aI1000
aI0
aI0
aI0
aI0
aI0
aI0
aI1000
aI1000
aI1000
aI1000
aI1000
aI1000
aI1000
aI1000
aI1000
aI1000
aI1000
aI1000
aI-1000
aI0
aI1000
aI0
aI0
aI1000
aI1000
aI1000
aI1000
aI0
aI0
aI1000
aI0
aI0
aI1000
aI1000
aI1000
aI1000
aI1000
aI1000
aI1000
aI1000
aI1000
aI1000
aI1000
aI1000
aI1000
aI-1000
aI0
aI0
aI0
aI0
aI0
aI0
aI0
aI0
aI0
aI0
aI0
aI0
aI0
aI0
aI0
aI0
aI0
aI0
aI0
aI0
aI0
aI0
aI0
aI0
aI0
aI1000
aI-1000
aI0
aI0
aI0
aI0
aI0
aI0
aI0
aI0
aI0
aI0
aI0
aI0
aI0
aI0
aI0
aI0
aI0
aI0
aI0
aI0
aI0
aI0
aI0
aI0
aI0
aI1000
aI-1000
aI0
aI1000
aI0
aI0
aI1000
aI0
aI0
aI1000
aI0
aI0
aI1000
aI0
aI0
aI1000
aI0
aI0
aI1000
aI0
aI0
aI1000
aI0
aI0
aI1000
aI0
aI0
aI1000
aI-1000
aI0
aI0
aI0
aI0
aI0
aI0
aI0
aI0
aI0
aI0
aI0
aI0
aI0
aI0
aI0
aI0
aI0
aI0
aI0
aI0
aI0
aI0
aI0
aI0
aI0
aI1000
aI-1000
aI0
aI0
aI0
aI0
aI0
aI0
aI0
aI0
aI0
aI0
aI0
aI0
aI0
aI0
aI0
aI0
aI0
aI0
aI0
aI0
aI0
aI0
aI0
aI0
aI0
aI1000
aI-1000
aI0
aI1000
aI0
aI0
aI1000
aI0
aI0
aI1000
aI0
aI0
aI1000
aI0
aI0
aI1000
aI0
aI0
aI1000
aI0
aI0
aI1000
aI0
aI0
aI1000
aI0
aI0
aI1000
aI-1000
aI0
aI0
aI0
aI0
aI0
aI1000
aI1000
aI1000
aI0
aI0
aI0
aI0
aI0
aI0
aI1000
aI1000
aI1000
aI1000
aI1000
aI1000
aI1000
aI1000
aI1000
aI1000
aI1000
aI1000
aI-1000
aI0
aI0
aI0
aI0
aI0
aI1000
aI1000
aI1000
aI0
aI0
aI0
aI0
aI0
aI0
aI1000
aI1000
aI1000
aI1000
aI1000
aI1000
aI1000
aI1000
aI1000
aI1000
aI1000
aI1000
aI1000
aI1000
aI1000
aI1000
aI1000
aI1000
aI1000
aI1000
aI1000
aI1000
aI1000
aI1000
aI1000
aI1000
aI1000
aI1000
aI1000
aI1000
aI1000
aI1000
aI1000
aI1000
aI1000
aI1000
aI1000
aI1000
aI1000
aI-1000
aI-1000
aI-1000
aI-1000
aI-1000
aI-1000
aI-1000
aI-1000
aI-1000
aI-1000
aI-1000
aI-1000
aI-1000
aI-1000
aI-1000
aI-1000
aI-1000
aI-1000
aI-1000
aI-1000
aI-1000
aI-1000
aI-1000
aI-1000
aI-1000
aI-1000
aI1000
aI-1000
aI-1000
aI-1000
aI-1000
aI-1000
aI-1000
aI-1000
aI-1000
aI-1000
aI-1000
aI-1000
aI-1000
aI0
aI0
aI0
aI0
aI0
aI0
aI-1000
aI-1000
aI-1000
aI0
aI0
aI0
aI0
aI0
aI1000
aI-1000
aI-1000
aI-1000
aI-1000
aI-1000
aI-1000
aI-1000
aI-1000
aI-1000
aI-1000
aI-1000
aI-1000
aI0
aI0
aI0
aI0
aI0
aI0
aI-1000
aI-1000
aI-1000
aI0
aI0
aI0
aI100
aI0
aI1000
aI-1000
aI0
aI0
aI-1000
aI0
aI0
aI-1000
aI0
aI0
aI-1000
aI0
aI0
aI-1000
aI0
aI0
aI-1000
aI0
aI0
aI-1000
aI0
aI0
aI-1000
aI0
aI0
aI-1000
aI0
aI1000
aI-1000
aI0
aI0
aI0
aI0
aI0
aI0
aI0
aI0
aI0
aI0
aI0
aI0
aI0
aI0
aI0
aI0
aI0
aI0
aI0
aI0
aI0
aI0
aI0
aI0
aI0
aI1000
aI-1000
aI0
aI0
aI0
aI0
aI0
aI0
aI0
aI0
aI0
aI0
aI0
aI0
aI0
aI0
aI0
aI0
aI0
aI0
aI0
aI0
aI0
aI0
aI0
aI0
aI0
aI1000
aI-1000
aI0
aI1000
aI-1000
aI0
aI1000
aI-1000
aI0
aI1000
aI-1000
aI0
aI1000
aI-1000
aI0
aI1000
aI-1000
aI0
aI1000
aI-1000
aI0
aI1000
aI-1000
aI0
aI1000
aI-1000
aI0
aI1000
aI-1000
aI0
aI1000
aI0
aI0
aI1000
aI0
aI0
aI1000
aI0
aI0
aI1000
aI0
aI0
aI1000
aI0
aI0
aI1000
aI0
aI0
aI1000
aI0
aI0
aI1000
aI0
aI0
aI1000
aI-1000
aI0
aI1000
aI0
aI0
aI1000
aI100
aI0
aI1000
aI0
aI0
aI1000
aI0
aI0
aI1000
aI0
aI0
aI1000
aI100
aI0
aI1000
aI0
aI0
aI1000
aI100
aI0
aI1000
aI-1000
aI-1000
aI-1000
aI-1000
aI-1000
aI-1000
aI-1000
aI-1000
aI-1000
aI-1000
aI-1000
aI-1000
aI-1000
aI0
aI0
aI-1000
aI0
aI0
aI-1000
aI-1000
aI-1000
aI-1000
aI0
aI0
aI-1000
aI0
aI1000
aI-1000
aI-1000
aI-1000
aI-1000
aI-1000
aI-1000
aI-1000
aI-1000
aI-1000
aI-1000
aI-1000
aI-1000
aI0
aI0
aI0
aI0
aI0
aI0
aI-1000
aI-1000
aI-1000
aI0
aI0
aI0
aI0
aI0
aI1000
aI-1000
aI-1000
aI-1000
aI-1000
aI-1000
aI-1000
aI-1000
aI-1000
aI-1000
aI-1000
aI-1000
aI-1000
aI0
aI0
aI0
aI0
aI0
aI0
aI-1000
aI-1000
aI-1000
aI0
aI0
aI0
aI0
aI0
aI1000
aI-1000
aI0
aI0
aI-1000
aI0
aI0
aI-1000
aI0
aI0
aI-1000
aI0
aI0
aI-1000
aI0
aI0
aI-1000
aI0
aI0
aI-1000
aI0
aI0
aI-1000
aI0
aI0
aI-1000
aI0
aI1000
aI-1000
aI0
aI0
aI0
aI0
aI0
aI0
aI0
aI0
aI0
aI0
aI0
aI0
aI0
aI0
aI0
aI0
aI0
aI0
aI0
aI0
aI0
aI0
aI0
aI0
aI0
aI1000
aI-1000
aI0
aI0
aI0
aI0
aI0
aI0
aI0
aI0
aI0
aI0
aI0
aI0
aI0
aI0
aI0
aI0
aI0
aI0
aI0
aI0
aI0
aI0
aI0
aI0
aI0
aI1000
aI-1000
aI0
aI1000
aI-1000
aI0
aI1000
aI-1000
aI0
aI1000
aI-1000
aI0
aI1000
aI-1000
aI0
aI1000
aI-1000
aI0
aI1000
aI-1000
aI0
aI1000
aI-1000
aI0
aI1000
aI-1000
aI0
aI1000
aI-1000
aI0
aI1000
aI0
aI0
aI1000
aI0
aI0
aI1000
aI0
aI0
aI1000
aI0
aI0
aI1000
aI0
aI0
aI1000
aI0
aI0
aI1000
aI0
aI0
aI1000
aI0
aI0
aI1000
aI-1000
aI0
aI1000
aI0
aI0
aI1000
aI0
aI0
aI1000
aI0
aI0
aI1000
aI0
aI0
aI1000
aI0
aI0
aI1000
aI0
aI0
aI1000
aI0
aI0
aI1000
aI0
aI0
aI1000
aI-1000
aI-1000
aI-1000
aI-1000
aI-1000
aI-1000
aI-1000
aI-1000
aI-1000
aI-1000
aI-1000
aI-1000
aI-1000
aI0
aI0
aI-1000
aI0
aI0
aI1000
aI1000
aI1000
aI1000
aI1000
aI1000
aI1000
aI1000
aI1000
aI-1000
aI-1000
aI-1000
aI-1000
aI-1000
aI-1000
aI-1000
aI-1000
aI-1000
aI-1000
aI-1000
aI-1000
aI0
aI0
aI0
aI0
aI0
aI0
aI1000
aI1000
aI1000
aI1000
aI1000
aI1000
aI1000
aI1000
aI1000
aI-1000
aI-1000
aI-1000
aI-1000
aI-1000
aI-1000
aI-1000
aI-1000
aI-1000
aI-1000
aI-1000
aI-1000
aI0
aI0
aI0
aI0
aI0
aI0
aI1000
aI1000
aI1000
aI1000
aI1000
aI1000
aI1000
aI1000
aI1000
aI-1000
aI0
aI0
aI-1000
aI0
aI0
aI-1000
aI0
aI0
aI-1000
aI0
aI0
aI-1000
aI0
aI0
aI-1000
aI0
aI0
aI1000
aI1000
aI1000
aI1000
aI1000
aI1000
aI1000
aI1000
aI1000
aI-1000
aI0
aI0
aI0
aI0
aI0
aI0
aI0
aI0
aI0
aI0
aI0
aI0
aI0
aI0
aI0
aI0
aI0
aI1000
aI1000
aI1000
aI1000
aI1000
aI1000
aI1000
aI1000
aI1000
aI-1000
aI0
aI0
aI0
aI0
aI0
aI0
aI0
aI0
aI0
aI0
aI0
aI0
aI0
aI0
aI0
aI0
aI0
aI1000
aI1000
aI1000
aI1000
aI1000
aI1000
aI1000
aI1000
aI1000
aI-1000
aI0
aI1000
aI-1000
aI0
aI1000
aI-1000
aI0
aI1000
aI-1000
aI0
aI1000
aI-1000
aI0
aI1000
aI-1000
aI0
aI1000
aI1000
aI1000
aI1000
aI1000
aI1000
aI1000
aI1000
aI1000
aI1000
aI-1000
aI0
aI1000
aI0
aI0
aI1000
aI0
aI0
aI1000
aI0
aI0
aI1000
aI0
aI0
aI1000
aI0
aI0
aI1000
aI1000
aI1000
aI1000
aI1000
aI1000
aI1000
aI1000
aI1000
aI1000
aI1000
aI1000
aI1000
aI1000
aI1000
aI1000
aI1000
aI1000
aI1000
aI1000
aI1000
aI1000
aI1000
aI1000
aI1000
aI1000
aI1000
aI1000
aI1000
aI1000
aI1000
aI1000
aI1000
aI1000
aI1000
aI1000
aI1000
aI-1000
aI-1000
aI-1000
aI-1000
aI-1000
aI-1000
aI-1000
aI-1000
aI-1000
aI-1000
aI-1000
aI-1000
aI-1000
aI-1000
aI-1000
aI-1000
aI-1000
aI-1000
aI-1000
aI-1000
aI-1000
aI-1000
aI-1000
aI-1000
aI-1000
aI-1000
aI1000
aI-1000
aI-1000
aI-1000
aI0
aI0
aI0
aI0
aI0
aI0
aI-1000
aI-1000
aI-1000
aI0
aI0
aI0
aI0
aI0
aI0
aI-1000
aI-1000
aI-1000
aI0
aI0
aI0
aI0
aI0
aI1000
aI-1000
aI-1000
aI-1000
aI0
aI0
aI0
aI0
aI0
aI0
aI-1000
aI-1000
aI-1000
aI0
aI0
aI0
aI0
aI0
aI0
aI-1000
aI-1000
aI-1000
aI0
aI0
aI0
aI0
aI0
aI1000
aI-1000
aI0
aI0
aI0
aI0
aI0
aI0
aI0
aI0
aI0
aI0
aI0
aI0
aI0
aI0
aI0
aI0
aI0
aI0
aI0
aI0
aI0
aI0
aI0
aI0
aI0
aI1000
aI-1000
aI0
aI0
aI0
aI0
aI0
aI0
aI0
aI0
aI0
aI0
aI0
aI0
aI0
aI0
aI0
aI0
aI0
aI0
aI0
aI0
aI0
aI0
aI0
aI0
aI0
aI1000
aI-1000
aI0
aI0
aI0
aI0
aI0
aI0
aI0
aI0
aI0
aI0
aI0
aI0
aI0
aI0
aI0
aI0
aI0
aI0
aI0
aI0
aI0
aI0
aI0
aI0
aI0
aI1000
aI-1000
aI0
aI1000
aI0
aI0
aI1000
aI0
aI0
aI1000
aI0
aI0
aI1000
aI0
aI0
aI1000
aI0
aI0
aI1000
aI0
aI0
aI1000
aI0
aI0
aI1000
aI0
aI0
aI1000
aI-1000
aI0
aI1000
aI0
aI0
aI1000
aI0
aI0
aI1000
aI0
aI0
aI1000
aI0
aI0
aI1000
aI0
aI0
aI1000
aI0
aI0
aI1000
aI0
aI0
aI1000
aI0
aI0
aI1000
aI-1000
aI0
aI1000
aI0
aI0
aI1000
aI0
aI0
aI1000
aI0
aI0
aI1000
aI0
aI0
aI1000
aI0
aI0
aI1000
aI0
aI0
aI1000
aI0
aI0
aI1000
aI0
aI0
aI1000
aI-1000
aI-1000
aI-1000
aI0
aI0
aI0
aI0
aI0
aI0
aI-1000
aI-1000
aI-1000
aI0
aI0
aI0
aI0
aI0
aI0
aI-1000
aI-1000
aI-1000
aI0
aI0
aI0
aI0
aI0
aI1000
aI-1000
aI-1000
aI-1000
aI0
aI0
aI0
aI0
aI0
aI0
aI-1000
aI-1000
aI-1000
aI0
aI0
aI0
aI0
aI0
aI0
aI-1000
aI-1000
aI-1000
aI0
aI0
aI0
aI0
aI0
aI1000
aI-1000
aI-1000
aI-1000
aI0
aI0
aI0
aI0
aI0
aI0
aI-1000
aI-1000
aI-1000
aI0
aI0
aI0
aI0
aI0
aI0
aI-1000
aI-1000
aI-1000
aI0
aI0
aI0
aI0
aI0
aI1000
aI-1000
aI0
aI0
aI0
aI0
aI0
aI0
aI0
aI0
aI0
aI0
aI0
aI0
aI0
aI0
aI0
aI0
aI0
aI0
aI0
aI0
aI0
aI0
aI0
aI0
aI0
aI1000
aI-1000
aI0
aI0
aI0
aI0
aI0
aI0
aI0
aI0
aI0
aI0
aI0
aI0
aF0.0
aI0
aI0
aI0
aI0
aI0
aI0
aI0
aI0
aI0
aI0
aI0
aI0
aI1000
aI-1000
aI0
aI0
aI0
aI0
aI0
aI0
aI0
aI0
aI0
aI0
aI0
aI0
aI0
aI0
aI0
aI0
aI0
aI0
aI0
aI0
aI0
aI0
aI0
aI0
aI0
aI1000
aI-1000
aI0
aI1000
aI0
aI0
aI1000
aI0
aI0
aI1000
aI0
aI0
aI1000
aI0
aI0
aI1000
aI0
aI0
aI1000
aI0
aI0
aI1000
aI0
aI0
aI1000
aI0
aI0
aI1000
aI-1000
aI0
aI1000
aI0
aI0
aI1000
aI0
aI0
aI1000
aI0
aI0
aI1000
aI0
aI0
aI1000
aI0
aI0
aI1000
aI0
aI0
aI1000
aI0
aI0
aI1000
aI0
aI0
aI1000
aI-1000
aI0
aI1000
aI0
aI0
aI1000
aI0
aI0
aI1000
aI0
aI0
aI1000
aI0
aI0
aI1000
aI0
aI0
aI1000
aI0
aI0
aI1000
aI0
aI0
aI1000
aI0
aI0
aI1000
aI-1000
aI-1000
aI-1000
aI0
aI0
aI0
aI0
aI0
aI0
aI-1000
aI-1000
aI-1000
aI0
aI0
aI0
aI0
aI0
aI0
aI1000
aI1000
aI1000
aI1000
aI1000
aI1000
aI1000
aI1000
aI1000
aI-1000
aI-1000
aI-1000
aI0
aI0
aI0
aI0
aI0
aI0
aI-1000
aI-1000
aI-1000
aI0
aI0
aI0
aI0
aI0
aI0
aI1000
aI1000
aI1000
aI1000
aI1000
aI1000
aI1000
aI1000
aI1000
aI-1000
aI-1000
aI-1000
aI0
aI0
aI0
aI0
aI0
aI0
aI-1000
aI-1000
aI-1000
aI0
aI0
aI0
aI0
aI0
aI0
aI1000
aI1000
aI1000
aI1000
aI1000
aI1000
aI1000
aI1000
aI1000
aI-1000
aI0
aI0
aI0
aI0
aI0
aI0
aI0
aI0
aI0
aI0
aI0
aI0
aI0
aI0
aI0
aI0
aI0
aI1000
aI1000
aI1000
aI1000
aI1000
aI1000
aI1000
aI1000
aI1000
aI-1000
aI0
aI0
aI0
aI0
aI0
aI0
aI0
aI0
aI0
aI0
aI0
aI0
aI0
aI0
aI0
aI0
aI0
aI1000
aI1000
aI1000
aI1000
aI1000
aI1000
aI1000
aI1000
aI1000
aI-1000
aI0
aI0
aI0
aI0
aI0
aI0
aI0
aI0
aI0
aI0
aI0
aI0
aI0
aI0
aI0
aI0
aI0
aI1000
aI1000
aI1000
aI1000
aI1000
aI1000
aI1000
aI1000
aI1000
aI-1000
aI0
aI1000
aI0
aI0
aI1000
aI0
aI0
aI1000
aI0
aI0
aI1000
aI0
aI0
aI1000
aI0
aI0
aI1000
aI1000
aI1000
aI1000
aI1000
aI1000
aI1000
aI1000
aI1000
aI1000
aI-1000
aI0
aI1000
aI0
aI0
aI1000
aI0
aI0
aI1000
aI0
aI0
aI1000
aI0
aI0
aI1000
aI0
aI0
aI1000
aI1000
aI1000
aI1000
aI1000
aI1000
aI1000
aI1000
aI1000
aI1000
aI1000
aI1000
aI1000
aI1000
aI1000
aI1000
aI1000
aI1000
aI1000
aI1000
aI1000
aI1000
aI1000
aI1000
aI1000
aI1000
aI1000
aI1000
aI1000
aI1000
aI1000
aI1000
aI1000
aI1000
aI1000
aI1000
aI1000
aI-1000
aI-1000
aI-1000
aI-1000
aI-1000
aI-1000
aI-1000
aI-1000
aI-1000
aI-1000
aI-1000
aI-1000
aI-1000
aI-1000
aI-1000
aI-1000
aI-1000
aI-1000
aI-1000
aI-1000
aI-1000
aI-1000
aI-1000
aI-1000
aI-1000
aI-1000
aI1000
aI-1000
aI-1000
aI-1000
aI0
aI0
aI0
aI0
aI0
aI0
aI-1000
aI-1000
aI-1000
aI0
aI0
aI0
aI0
aF0.0
aI0
aI-1000
aI-1000
aI-1000
aI0
aI0
aI0
aI0
aI0
aI1000
aI-1000
aI-1000
aI1000
aI0
aI0
aI1000
aI100
aF500.0
aI1000
aI-1000
aI-1000
aI1000
aI0
aI0
aI1000
aF50.0
aF0.0
aI1000
aI-1000
aI-1000
aI1000
aI0
aI0
aI1000
aI100
aI0
aI1000
aI-1000
aI0
aI0
aI0
aI0
aI0
aI0
aI0
aI0
aI0
aI0
aI0
aI0
aI0
aI0
aI0
aI0
aI0
aI0
aI0
aI0
aI0
aI0
aI0
aI0
aI0
aI1000
aI-1000
aI0
aI0
aI0
aI0
aI0
aI0
aI0
aI0
aI0
aI0
aI0
aI0
aI0
aI0
aI0
aI0
aI0
aI0
aI0
aI0
aI0
aI0
aI0
aI0
aI0
aI1000
aI-1000
aI0
aI1000
aI0
aI0
aI1000
aI0
aI0
aI1000
aI0
aI0
aI1000
aI0
aI0
aI1000
aI0
aI0
aI1000
aI0
aI0
aI1000
aI0
aI0
aI1000
aI0
aI0
aI1000
aI-1000
aI0
aI1000
aI0
aI0
aI1000
aI100
aI0
aI1000
aI0
aI0
aI1000
aI0
aI0
aI1000
aI0
aI0
aI1000
aI1000
aI1000
aI1000
aI1000
aI1000
aI1000
aI1000
aI1000
aI1000
aI-1000
aI0
aI1000
aI0
aI0
aI1000
aI0
aI0
aI1000
aI0
aI0
aI1000
aI0
aI0
aI1000
aI0
aI0
aI1000
aI1000
aI1000
aI1000
aI1000
aI1000
aI1000
aI1000
aI1000
aI1000
aI-1000
aI0
aI1000
aI0
aI0
aI1000
aI100
aI0
aI1000
aI0
aI0
aI1000
aI0
aI0
aI1000
aI0
aI0
aI1000
aI1000
aI1000
aI1000
aI1000
aI1000
aI1000
aI1000
aI1000
aI1000
aI-1000
aI-1000
aI-1000
aI0
aI0
aI0
aI0
aI0
aI0
aI-1000
aI-1000
aI-1000
aI0
aI0
aI0
aI0
aI0
aI0
aI-1000
aI-1000
aI-1000
aI0
aI0
aI0
aI0
aI0
aI1000
aI-1000
aI-1000
aI-1000
aI0
aI0
aI0
aI0
aF0.0
aI0
aI-1000
aI-1000
aI-1000
aI0
aF0.0
aI0
aI0
aF0.0
aI0
aI-1000
aI-1000
aI-1000
aI0
aF-500.0
aI0
aI0
aI0
aI1000
aI-1000
aI-1000
aI1000
aI0
aI0
aI1000
aI0
aI0
aI1000
aI-1000
aI-1000
aI1000
aI0
aF-500.0
aI1000
aI0
aI0
aI1000
aI-1000
aI-1000
aI1000
aI0
aI0
aI1000
aI0
aI0
aI1000
aI-1000
aI0
aI0
aI0
aI0
aI0
aI0
aI0
aI0
aI0
aI0
aI0
aI0
aF0.0
aI0
aI0
aI0
aI0
aI0
aI0
aI0
aI0
aI0
aI0
aI0
aI0
aI1000
aI-1000
aI0
aI0
aI0
aI0
aI0
aI0
aI0
aI0
aI0
aI0
aI0
aF3.125
aF0.0
aI0
aI0
aI0
aI0
aI0
aI0
aI0
aI0
aI0
aI0
aI0
aI0
aI1000
aI-1000
aI0
aI1000
aI0
aI0
aI1000
aI0
aI0
aI1000
aI0
aI0
aI1000
aI0
aI0
aI1000
aI0
aI0
aI1000
aI0
aI0
aI1000
aI0
aI0
aI1000
aI0
aI0
aI1000
aI-1000
aI0
aI1000
aI0
aI0
aI1000
aI0
aI0
aI1000
aI0
aI0
aI1000
aI0
aI0
aI1000
aI0
aI0
aI1000
aI1000
aI1000
aI1000
aI1000
aI1000
aI1000
aI1000
aI1000
aI1000
aI-1000
aI0
aI1000
aI0
aI0
aI1000
aI0
aI0
aI1000
aI0
aI0
aI1000
aI0
aI0
aI1000
aI0
aI0
aI1000
aI1000
aI1000
aI1000
aI1000
aI1000
aI1000
aI1000
aI1000
aI1000
aI-1000
aI0
aI1000
aI0
aI0
aI1000
aI0
aI0
aI1000
aI0
aI0
aI1000
aI0
aI0
aI1000
aI0
aI0
aI1000
aI1000
aI1000
aI1000
aI1000
aI1000
aI1000
aI1000
aI1000
aI1000
aI-1000
aI-1000
aI-1000
aI0
aI0
aI0
aI100
aI0
aI100
aI-1000
aI-1000
aI-1000
aI0
aI0
aI0
aI0
aI0
aI0
aI1000
aI1000
aI1000
aI1000
aI1000
aI1000
aI1000
aI1000
aI1000
aI-1000
aI-1000
aI-1000
aI0
aI0
aI0
aF50.0
aF0.0
aI0
aI-1000
aI-1000
aI-1000
aI0
aF-500.0
aI0
aI0
aI0
aI0
aI1000
aI1000
aI1000
aI1000
aI1000
aI1000
aI1000
aI1000
aI1000
aI-1000
aI-1000
aI1000
aI0
aI0
aI1000
aI100
aI0
aI1000
aI-1000
aI-1000
aI1000
aI0
aI0
aI1000
aI0
aI0
aI1000
aI1000
aI1000
aI1000
aI1000
aI1000
aI1000
aI1000
aI1000
aI1000
aI-1000
aI0
aI0
aI0
aF12.5
aI0
aF50.0
aI0
aI0
aI0
aI0
aI0
aI0
aF0.0
aI0
aI0
aI0
aI0
aI1000
aI1000
aI1000
aI1000
aI1000
aI1000
aI1000
aI1000
aI1000
aI-1000
aI0
aI0
aF12.5
aI0
aI0
aF25.0
aI0
aI0
aI0
aI0
aI0
aF6.25
aI0
aI0
aI0
aI0
aI0
aI1000
aI1000
aI1000
aI1000
aI1000
aI1000
aI1000
aI1000
aI1000
aI-1000
aI0
aI1000
aF-500.0
aI0
aI1000
aI0
aI0
aI1000
aI0
aI0
aI1000
aI0
aI0
aI1000
aI0
aI0
aI1000
aI1000
aI1000
aI1000
aI1000
aI1000
aI1000
aI1000
aI1000
aI1000
aI-1000
aI0
aI1000
aF50.0
aF25.0
aI1000
aI100
aI0
aI1000
aI0
aI0
aI1000
aI0
aI0
aI1000
aI0
aI0
aI1000
aI1000
aI1000
aI1000
aI1000
aI1000
aI1000
aI1000
aI1000
aI1000
aI-1000
aI0
aI1000
aF-500.0
aI0
aI1000
aI0
aI0
aI1000
aI0
aI0
aI1000
aI0
aI0
aI1000
aI0
aI0
aI1000
aI1000
aI1000
aI1000
aI1000
aI1000
aI1000
aI1000
aI1000
aI1000
aI1000
aI1000
aI1000
aI1000
aI1000
aI1000
aI1000
aI1000
aI1000
aI1000
aI1000
aI1000
aI1000
aI1000
aI1000
aI1000
aI1000
aI1000
aI1000
aI1000
aI1000
aI1000
aI1000
aI1000
aI1000
aI1000
aI1000
aI-1000
aI-1000
aI-1000
aI-1000
aI-1000
aI-1000
aI-1000
aI-1000
aI-1000
aI-1000
aI-1000
aI-1000
aI-1000
aI-1000
aI-1000
aI-1000
aI-1000
aI-1000
aI-1000
aI-1000
aI-1000
aI-1000
aI-1000
aI-1000
aI-1000
aI-1000
aI1000
aI-1000
aI-1000
aI-1000
aI-1000
aI-1000
aI-1000
aI-1000
aI-1000
aI-1000
aI0
aI0
aI0
aI0
aI0
aI0
aI0
aI0
aI0
aI0
aI0
aI0
aI0
aI0
aI0
aI0
aI0
aI1000
aI-1000
aI-1000
aI-1000
aI-1000
aI-1000
aI-1000
aI-1000
aI-1000
aI-1000
aI0
aI0
aI0
aI0
aI0
aI0
aI0
aI0
aI0
aI0
aI0
aI0
aI0
aI0
aI0
aI0
aI0
aI1000
aI-1000
aI0
aI0
aI-1000
aI0
aI0
aI-1000
aI0
aI0
aI-1000
aI0
aI0
aI-1000
aI0
aI0
aI-1000
aI0
aI0
aI-1000
aI0
aI0
aI-1000
aI0
aI0
aI-1000
aI0
aI1000
aI-1000
aI0
aI0
aI0
aI0
aI0
aI0
aI0
aI0
aI0
aI0
aI0
aI0
aI0
aI0
aI0
aI0
aI0
aI0
aI0
aI0
aI0
aI0
aI0
aI0
aI0
aI1000
aI-1000
aI0
aI0
aI0
aI0
aI0
aI0
aI0
aI0
aI0
aI0
aI0
aI0
aI0
aI0
aI0
aI0
aI0
aI0
aI0
aI0
aI0
aI0
aI0
aI0
aI0
aI1000
aI-1000
aI0
aI1000
aI-1000
aI0
aI1000
aI-1000
aI0
aI1000
aI-1000
aI0
aI1000
aI-1000
aI0
aI1000
aI-1000
aI0
aI1000
aI-1000
aI0
aI1000
aI-1000
aI0
aI1000
aI-1000
aI0
aI1000
aI-1000
aI0
aI1000
aI0
aI0
aI1000
aI0
aI0
aI1000
aI0
aI0
aI1000
aI0
aI0
aI1000
aI0
aI0
aI1000
aI0
aI0
aI1000
aI0
aI0
aI1000
aI0
aI0
aI1000
aI-1000
aI0
aI1000
aI0
aI0
aI1000
aI0
aI0
aI1000
aI0
aI0
aI1000
aI0
aI0
aI1000
aI0
aI0
aI1000
aI0
aI0
aI1000
aI0
aI0
aI1000
aI0
aI0
aI1000
aI-1000
aI-1000
aI-1000
aI-1000
aI-1000
aI-1000
aI-1000
aI-1000
aI-1000
aI-1000
aI0
aI0
aI-1000
aI0
aI0
aI-1000
aI0
aI0
aI-1000
aI0
aI0
aI-1000
aI0
aI0
aI-1000
aI0
aI1000
aI-1000
aI-1000
aI-1000
aI-1000
aI-1000
aI-1000
aI-1000
aI-1000
aI-1000
aI0
aI0
aI0
aI0
aI0
aI0
aI0
aI0
aI0
aI0
aI0
aI0
aI0
aI0
aI0
aI0
aI0
aI1000
aI-1000
aI-1000
aI-1000
aI-1000
aI-1000
aI-1000
aI-1000
aI-1000
aI-1000
aI0
aI0
aI0
aI0
aI0
aI0
aI0
aI0
aI0
aI0
aI0
aI0
aI0
aI0
aI0
aI0
aI0
aI1000
aI-1000
aI0
aI0
aI-1000
aI0
aI0
aI-1000
aI0
aI0
aI-1000
aI0
aI0
aI-1000
aI0
aI0
aI-1000
aI0
aI0
aI-1000
aI0
aI0
aI-1000
aI0
aI0
aI-1000
aI0
aI1000
aI-1000
aI0
aI0
aI0
aI0
aI0
aI0
aI0
aI0
aI0
aI0
aI0
aI0
aF31.25
aI0
aI0
aI0
aI0
aI0
aI0
aI0
aI0
aI0
aI0
aI0
aI0
aI1000
aI-1000
aI0
aI0
aI0
aI0
aI0
aI0
aI0
aI0
aI0
aI0
aI0
aI0
aI0
aI0
aI0
aI0
aI0
aI0
aI0
aI0
aI0
aI0
aI0
aI0
aI0
aI1000
aI-1000
aI0
aI1000
aI-1000
aI0
aI1000
aI-1000
aI0
aI1000
aI-1000
aI0
aI1000
aI-1000
aI0
aI1000
aI-1000
aI0
aI1000
aI-1000
aI0
aI1000
aI-1000
aI0
aI1000
aI-1000
aI0
aI1000
aI-1000
aI0
aI1000
aI0
aI0
aI1000
aI0
aI0
aI1000
aI0
aI0
aI1000
aI0
aI0
aI1000
aI0
aI0
aI1000
aI0
aI0
aI1000
aI0
aI0
aI1000
aI0
aI0
aI1000
aI-1000
aI0
aI1000
aI0
aI0
aI1000
aI0
aI0
aI1000
aI0
aI0
aI1000
aI0
aI0
aI1000
aI0
aI0
aI1000
aI0
aI0
aI1000
aI0
aI0
aI1000
aI0
aI0
aI1000
aI-1000
aI-1000
aI-1000
aI-1000
aI-1000
aI-1000
aI-1000
aI-1000
aI-1000
aI-1000
aI0
aI0
aI-1000
aI0
aI0
aI-1000
aI0
aI0
aI1000
aI1000
aI1000
aI1000
aI1000
aI1000
aI1000
aI1000
aI1000
aI-1000
aI-1000
aI-1000
aI-1000
aI-1000
aI-1000
aI-1000
aI-1000
aI-1000
aI0
aI0
aI0
aI0
aI0
aI0
aI0
aI0
aI0
aI1000
aI1000
aI1000
aI1000
aI1000
aI1000
aI1000
aI1000
aI1000
aI-1000
aI-1000
aI-1000
aI-1000
aI-1000
aI-1000
aI-1000
aI-1000
aI-1000
aI0
aI0
aI0
aI0
aI0
aI0
aI0
aI0
aI0
aI1000
aI1000
aI1000
aI1000
aI1000
aI1000
aI1000
aI1000
aI1000
aI-1000
aI0
aI0
aI-1000
aI0
aI0
aI-1000
aI0
aI0
aI-1000
aI0
aI0
aI-1000
aI0
aI0
aI-1000
aI0
aI0
aI1000
aI1000
aI1000
aI1000
aI1000
aI1000
aI1000
aI1000
aI1000
aI-1000
aI0
aI0
aI0
aF125.0
aI0
aI0
aI0
aI0
aI0
aI0
aI0
aI0
aF62.5
aI0
aI0
aI0
aI0
aI1000
aI1000
aI1000
aI1000
aI1000
aI1000
aI1000
aI1000
aI1000
aI-1000
aI0
aI0
aI0
aI0
aI0
aI0
aI0
aI0
aI0
aI0
aI0
aI0
aI0
aI0
aI0
aI0
aI0
aI1000
aI1000
aI1000
aI1000
aI1000
aI1000
aI1000
aI1000
aI1000
aI-1000
aI0
aI1000
aI-1000
aF500.0
aI1000
aI-1000
aI0
aI1000
aI-1000
aI0
aI1000
aI-1000
aI0
aI1000
aI-1000
aI0
aI1000
aI1000
aI1000
aI1000
aI1000
aI1000
aI1000
aI1000
aI1000
aI1000
aI-1000
aI0
aI1000
aF500.0
aF250.0
aI1000
aI0
aI0
aI1000
aI0
aI0
aI1000
aI0
aI0
aI1000
aI0
aI0
aI1000
aI1000
aI1000
aI1000
aI1000
aI1000
aI1000
aI1000
aI1000
aI1000
aI1000
aI1000
aI1000
aI1000
aI1000
aI1000
aI1000
aI1000
aI1000
aI1000
aI1000
aI1000
aI1000
aI1000
aI1000
aI1000
aI1000
aI1000
aI1000
aI1000
aI1000
aI1000
aI1000
aI1000
aI1000
aI1000
aI1000
aI-1000
aI-1000
aI-1000
aI-1000
aI-1000
aI-1000
aI-1000
aI-1000
aI-1000
aI-1000
aI-1000
aI-1000
aI-1000
aI-1000
aI-1000
aI-1000
aI-1000
aI-1000
aI-1000
aI-1000
aI-1000
aI-1000
aI-1000
aI-1000
aI-1000
aI-1000
aI1000
aI-1000
aI0
aI0
aI0
aI0
aI0
aI0
aI0
aI0
aI0
aI0
aI0
aI0
aI0
aI0
aI0
aI0
aI0
aI0
aI0
aI0
aI0
aI0
aI0
aI0
aI0
aI1000
aI-1000
aI0
aI0
aI0
aI0
aI0
aI0
aI0
aI0
aI0
aI0
aI0
aI0
aI0
aI0
aI0
aI0
aI0
aI0
aI0
aI0
aI0
aI0
aI0
aI0
aI0
aI1000
aI-1000
aI0
aI0
aI0
aI0
aI0
aI0
aI0
aI0
aI0
aI0
aI0
aI0
aI0
aI0
aI0
aI0
aI0
aI0
aI0
aI0
aI0
aI0
aI0
aI0
aI0
aI1000
aI-1000
aI0
aI0
aI0
aI0
aI0
aI0
aI0
aI0
aI0
aI0
aI0
aI0
aF0.0
aI0
aI0
aI0
aI0
aI0
aI0
aI0
aI0
aI0
aI0
aI0
aI0
aI1000
aI-1000
aI0
aI0
aI0
aI0
aI0
aI0
aI0
aI0
aI0
aI0
aI0
aI0
aI0
aI0
aI0
aI0
aI0
aI0
aI0
aI0
aI0
aI0
aI0
aI0
aI0
aI1000
aI-1000
aI0
aI1000
aI0
aI0
aI1000
aI0
aI0
aI1000
aI0
aI0
aI1000
aI0
aI0
aI1000
aI0
aI0
aI1000
aI0
aI0
aI1000
aI0
aI0
aI1000
aI0
aI0
aI1000
aI-1000
aI0
aI1000
aI0
aI0
aI1000
aI0
aI0
aI1000
aI0
aI0
aI1000
aI0
aI0
aI1000
aI0
aI0
aI1000
aI0
aI0
aI1000
aI0
aI0
aI1000
aI0
aI0
aI1000
aI-1000
aI0
aI1000
aI0
aI0
aI1000
aI0
aI0
aI1000
aI0
aI0
aI1000
aI0
aI0
aI1000
aI0
aI0
aI1000
aI0
aI0
aI1000
aI0
aI0
aI1000
aI0
aI0
aI1000
aI-1000
aI0
aI0
aI0
aI0
aI0
aI0
aI0
aI0
aI0
aI0
aI0
aI0
aI0
aI0
aI0
aI0
aI0
aI0
aI0
aI0
aI0
aI0
aI0
aI0
aI0
aI1000
aI-1000
aI0
aI0
aI0
aI0
aI0
aI0
aI0
aI0
aI0
aI0
aI0
aI0
aF0.0
aI0
aI0
aI0
aI0
aI0
aI0
aI0
aI0
aI0
aI0
aI0
aI0
aI1000
aI-1000
aI0
aI0
aI0
aI0
aI0
aI0
aI0
aI0
aI0
aI0
aI0
aI0
aI0
aI0
aI0
aI0
aI0
aI0
aI0
aI0
aI0
aI0
aI0
aI0
aI0
aI1000
aI-1000
aI0
aI0
aI0
aI0
aI0
aI0
aI0
aI0
aI0
aI0
aI0
aI0
aF0.0
aI0
aI0
aI0
aI0
aI0
aI0
aI0
aI0
aI0
aI0
aI0
aI0
aI1000
aI-1000
aI0
aI0
aI0
aF31.25
aI0
aI0
aI0
aI0
aI0
aF0.0
aI0
aF0.0
aF0.0
aI0
aI0
aI0
aI0
aI0
aI0
aI0
aI0
aI0
aI0
aI0
aI0
aI1000
aI-1000
aI0
aI0
aI0
aI0
aI0
aI0
aI0
aI0
aI0
aI0
aI0
aI0
aI0
aI0
aI0
aI0
aI0
aI0
aI0
aI0
aI0
aI0
aI0
aI0
aI0
aI1000
aI-1000
aI0
aI1000
aI0
aI0
aI1000
aI0
aI0
aI1000
aI0
aI0
aI1000
aI0
aI0
aI1000
aI0
aI0
aI1000
aI0
aI0
aI1000
aI0
aI0
aI1000
aI0
aI0
aI1000
aI-1000
aI0
aI1000
aI0
aI0
aI1000
aI0
aI0
aI1000
aI0
aI0
aI1000
aI0
aI0
aI1000
aI0
aI0
aI1000
aI0
aI0
aI1000
aI0
aI0
aI1000
aI0
aI0
aI1000
aI-1000
aI0
aI1000
aI0
aI0
aI1000
aI0
aI0
aI1000
aI0
aI0
aI1000
aI0
aI0
aI1000
aI0
aI0
aI1000
aI0
aI0
aI1000
aI0
aI0
aI1000
aI0
aI0
aI1000
aI-1000
aI0
aI0
aI0
aI0
aI0
aI0
aI0
aI0
aI0
aI0
aI0
aI0
aI0
aI0
aI0
aI0
aI0
aI1000
aI1000
aI1000
aI1000
aI1000
aI1000
aI1000
aI1000
aI1000
aI-1000
aI0
aI0
aI0
aI0
aI0
aI0
aI0
aI0
aI0
aI0
aI0
aI0
aI0
aI0
aI0
aI0
aI0
aI1000
aI1000
aI1000
aI1000
aI1000
aI1000
aI1000
aI1000
aI1000
aI-1000
aI0
aI0
aI0
aI0
aI0
aI0
aI0
aI0
aI0
aI0
aI0
aI0
aI0
aI0
aI0
aI0
aI0
aI1000
aI1000
aI1000
aI1000
aI1000
aI1000
aI1000
aI1000
aI1000
aI-1000
aI0
aI0
aI0
aI0
aI0
aI0
aI0
aI0
aI0
aI0
aI0
aI0
aI0
aI0
aI0
aI0
aI0
aI1000
aI1000
aI1000
aI1000
aI1000
aI1000
aI1000
aI1000
aI1000
aI-1000
aI0
aI0
aI0
aI0
aI0
aI0
aI0
aI0
aI0
aI0
aI0
aI0
aI0
aI0
aI0
aI0
aI0
aI1000
aI1000
aI1000
aI1000
aI1000
aI1000
aI1000
aI1000
aI1000
aI-1000
aI0
aI0
aI0
aI0
aI0
aI0
aI0
aI0
aI0
aI0
aI0
aI0
aI0
aI0
aI0
aI0
aI0
aI1000
aI1000
aI1000
aI1000
aI1000
aI1000
aI1000
aI1000
aI1000
aI-1000
aI0
aI1000
aI0
aI0
aI1000
aI0
aI0
aI1000
aI0
aI0
aI1000
aI0
aI0
aI1000
aI0
aI0
aI1000
aI1000
aI1000
aI1000
aI1000
aI1000
aI1000
aI1000
aI1000
aI1000
aI-1000
aI0
aI1000
aI0
aI0
aI1000
aI0
aI0
aI1000
aI0
aI0
aI1000
aI0
aI0
aI1000
aI0
aI0
aI1000
aI1000
aI1000
aI1000
aI1000
aI1000
aI1000
aI1000
aI1000
aI1000
aI1000
aI1000
aI1000
aI1000
aI1000
aI1000
aI1000
aI1000
aI1000
aI1000
aI1000
aI1000
aI1000
aI1000
aI1000
aI1000
aI1000
aI1000
aI1000
aI1000
aI1000
aI1000
aI1000
aI1000
aI1000
aI1000
aI1000
aI-1000
aI-1000
aI-1000
aI-1000
aI-1000
aI-1000
aI-1000
aI-1000
aI-1000
aI-1000
aI-1000
aI-1000
aI-1000
aI-1000
aI-1000
aI-1000
aI-1000
aI-1000
aI-1000
aI-1000
aI-1000
aI-1000
aI-1000
aI-1000
aI-1000
aI-1000
aI1000
aI-1000
aI0
aI0
aI0
aI0
aI0
aI0
aI0
aI0
aI0
aI0
aI0
aI0
aI0
aI0
aI0
aI0
aI0
aI0
aI0
aI0
aI0
aI0
aI0
aI0
aI0
aI1000
aI-1000
aI0
aI1000
aI0
aI0
aI1000
aI0
aI0
aI1000
aI0
aI0
aI1000
aI0
aI0
aI1000
aI0
aI0
aI1000
aI0
aI0
aI1000
aI0
aI0
aI1000
aI0
aI0
aI1000
aI-1000
aI0
aI0
aI0
aI0
aI0
aI0
aI0
aI0
aI0
aI0
aI0
aI0
aI0
aI0
aI0
aI0
aI0
aI0
aI0
aI0
aI0
aI0
aI0
aI0
aI0
aI1000
aI-1000
aI0
aI0
aI0
aI0
aI0
aI0
aI0
aI0
aI0
aI0
aI0
aI0
aI0
aI0
aI0
aI0
aI0
aI0
aI0
aI0
aI0
aI0
aI0
aI0
aI0
aI1000
aI-1000
aI0
aI1000
aI0
aI0
aI1000
aI0
aI0
aI1000
aI0
aI0
aI1000
aI0
aI0
aI1000
aI0
aI0
aI1000
aI0
aI0
aI1000
aI0
aI0
aI1000
aI0
aI0
aI1000
aI-1000
aI0
aI1000
aI0
aI0
aI1000
aI0
aI0
aI1000
aI0
aI0
aI1000
aI0
aI0
aI1000
aI0
aI0
aI1000
aI1000
aI1000
aI1000
aI1000
aI1000
aI1000
aI1000
aI1000
aI1000
aI-1000
aI0
aI1000
aI0
aI0
aI1000
aI0
aI0
aI1000
aI0
aI0
aI1000
aI0
aI0
aI1000
aI0
aI0
aI1000
aI1000
aI1000
aI1000
aI1000
aI1000
aI1000
aI1000
aI1000
aI1000
aI-1000
aI0
aI1000
aI0
aI0
aI1000
aI0
aI0
aI1000
aI0
aI0
aI1000
aI0
aI0
aI1000
aI0
aI0
aI1000
aI1000
aI1000
aI1000
aI1000
aI1000
aI1000
aI1000
aI1000
aI1000
aI-1000
aI0
aI0
aI0
aI0
aI0
aI0
aI0
aI0
aI0
aI0
aI0
aI0
aI0
aI0
aI0
aI0
aI0
aI0
aI0
aI0
aI0
aI0
aI0
aI0
aI0
aI1000
aI-1000
aI0
aI0
aI0
aI0
aI0
aI0
aI0
aI0
aI0
aI0
aI0
aI0
aI0
aI0
aI0
aI0
aI0
aI0
aI0
aI0
aI0
aI0
aI0
aI0
aI0
aI1000
aI-1000
aI0
aI1000
aI0
aI0
aI1000
aI0
aI0
aI1000
aI0
aI0
aI1000
aI0
aI0
aI1000
aI0
aI0
aI1000
aI0
aI0
aI1000
aI0
aI0
aI1000
aI0
aI0
aI1000
aI-1000
aI0
aI0
aI0
aI0
aI0
aI0
aI0
aI0
aI0
aI0
aI0
aI0
aF0.0
aI0
aI0
aI0
aI0
aI0
aI0
aI0
aI0
aI0
aI0
aI0
aI0
aI1000
aI-1000
aI0
aI0
aI0
aI0
aI0
aI0
aI0
aI0
aI0
aI0
aI0
aF1.5625
aI0
aI0
aI0
aI0
aI0
aI0
aI0
aI0
aI0
aI0
aI0
aI0
aI0
aI1000
aI-1000
aI0
aI1000
aI0
aI0
aI1000
aI0
aI0
aI1000
aI0
aI0
aI1000
aI0
aI0
aI1000
aI0
aI0
aI1000
aI0
aI0
aI1000
aI0
aI0
aI1000
aI0
aI0
aI1000
aI-1000
aI0
aI1000
aI0
aI0
aI1000
aI0
aI0
aI1000
aI0
aI0
aI1000
aI0
aI0
aI1000
aI0
aI0
aI1000
aI1000
aI1000
aI1000
aI1000
aI1000
aI1000
aI1000
aI1000
aI1000
aI-1000
aI0
aI1000
aI0
aI0
aI1000
aI0
aI0
aI1000
aI0
aI0
aI1000
aI0
aI0
aI1000
aI0
aI0
aI1000
aI1000
aI1000
aI1000
aI1000
aI1000
aI1000
aI1000
aI1000
aI1000
aI-1000
aI0
aI1000
aI0
aI0
aI1000
aI0
aI0
aI1000
aI0
aI0
aI1000
aI0
aI0
aI1000
aI0
aI0
aI1000
aI1000
aI1000
aI1000
aI1000
aI1000
aI1000
aI1000
aI1000
aI1000
aI-1000
aI0
aI0
aI0
aI0
aI0
aI0
aI0
aI0
aI0
aI0
aI0
aI0
aI0
aI0
aI0
aI0
aI0
aI1000
aI1000
aI1000
aI1000
aI1000
aI1000
aI1000
aI1000
aI1000
aI-1000
aI0
aI0
aI0
aI0
aI0
aI0
aI0
aI0
aI0
aI0
aI0
aI0
aI0
aI0
aI0
aI0
aI0
aI1000
aI1000
aI1000
aI1000
aI1000
aI1000
aI1000
aI1000
aI1000
aI-1000
aI0
aI1000
aI0
aI0
aI1000
aI0
aI0
aI1000
aI0
aI0
aI1000
aI0
aI0
aI1000
aI0
aI0
aI1000
aI1000
aI1000
aI1000
aI1000
aI1000
aI1000
aI1000
aI1000
aI1000
aI-1000
aI0
aI0
aI0
aI0
aI0
aI0
aI0
aI0
aI0
aI0
aI0
aI0
aI0
aI0
aI0
aI0
aI0
aI1000
aI1000
aI1000
aI1000
aI1000
aI1000
aI1000
aI1000
aI1000
aI-1000
aI0
aI0
aI0
aI0
aI0
aI0
aI0
aI0
aI0
aI0
aI0
aI0
aI0
aI0
aI0
aI0
aI0
aI1000
aI1000
aI1000
aI1000
aI1000
aI1000
aI1000
aI1000
aI1000
aI-1000
aI0
aI1000
aI0
aI0
aI1000
aI0
aI0
aI1000
aI0
aI0
aI1000
aI0
aI0
aI1000
aI0
aI0
aI1000
aI1000
aI1000
aI1000
aI1000
aI1000
aI1000
aI1000
aI1000
aI1000
aI-1000
aI0
aI1000
aI0
aI0
aI1000
aI0
aI0
aI1000
aI0
aI0
aI1000
aI0
aI0
aI1000
aI0
aI0
aI1000
aI1000
aI1000
aI1000
aI1000
aI1000
aI1000
aI1000
aI1000
aI1000
aI-1000
aI0
aI1000
aI0
aI0
aI1000
aI0
aI0
aI1000
aI0
aI0
aI1000
aI0
aI0
aI1000
aI0
aI0
aI1000
aI1000
aI1000
aI1000
aI1000
aI1000
aI1000
aI1000
aI1000
aI1000
aI1000
aI1000
aI1000
aI1000
aI1000
aI1000
aI1000
aI1000
aI1000
aI1000
aI1000
aI1000
aI1000
aI1000
aI1000
aI1000
aI1000
aI1000
aI1000
aI1000
aI1000
aI1000
aI1000
aI1000
aI1000
aI1000
aI1000
aI-1000
aI-1000
aI-1000
aI-1000
aI-1000
aI-1000
aI-1000
aI-1000
aI-1000
aI-1000
aI-1000
aI-1000
aI-1000
aI-1000
aI-1000
aI-1000
aI-1000
aI-1000
aI-1000
aI-1000
aI-1000
aI-1000
aI-1000
aI-1000
aI-1000
aI-1000
aI1000
aI-1000
aI-1000
aI-1000
aI-1000
aI-1000
aI-1000
aI-1000
aI-1000
aI-1000
aI0
aI0
aI0
aI0
aI0
aI0
aI0
aI0
aI0
aI0
aI0
aI0
aI0
aF12.5
aI0
aI0
aI0
aI1000
aI-1000
aI-1000
aI-1000
aI-1000
aI-1000
aI-1000
aI-1000
aI-1000
aI-1000
aI0
aI0
aI0
aI0
aI0
aI0
aI0
aI0
aI0
aI100
aF50.0
aI100
aF50.0
aF25.0
aI0
aI100
aI0
aI1000
aI-1000
aI0
aI0
aI-1000
aI0
aI0
aI-1000
aI0
aI0
aI-1000
aI0
aI0
aI-1000
aI0
aF500.0
aI-1000
aI0
aI0
aI-1000
aI0
aI0
aI-1000
aI0
aI0
aI-1000
aI0
aI1000
aI-1000
aI0
aI0
aI0
aI0
aI0
aI0
aI0
aI0
aI0
aI0
aI0
aI0
aF0.0
aI0
aI0
aI0
aI0
aI0
aF12.5
aI0
aI0
aI0
aI0
aI0
aI0
aI1000
aI-1000
aI0
aI0
aI0
aI0
aI0
aI0
aI0
aI0
aI0
aI0
aI0
aI0
aI0
aI0
aI0
aI0
aI0
aI0
aI0
aI0
aI0
aI0
aI0
aI0
aI0
aI1000
aI-1000
aI0
aI1000
aI-1000
aI0
aI1000
aI1000
aI1000
aI1000
aI-1000
aI0
aI1000
aI-1000
aI0
aI1000
aI1000
aI1000
aI1000
aI-1000
aF500.0
aI1000
aI-1000
aI0
aI1000
aI1000
aI1000
aI1000
aI-1000
aI0
aI1000
aI0
aI0
aI1000
aI1000
aI1000
aI1000
aI0
aF500.0
aI1000
aF500.0
aF0.0
aI1000
aI1000
aI1000
aI1000
aF50.0
aF0.0
aI1000
aI0
aI0
aI1000
aI1000
aI1000
aI1000
aI-1000
aI0
aI1000
aI0
aI0
aI1000
aI1000
aI1000
aI1000
aI0
aI0
aI1000
aI0
aI0
aI1000
aI1000
aI1000
aI1000
aI100
aI0
aI1000
aI0
aI0
aI1000
aI1000
aI1000
aI1000
aI-1000
aI-1000
aI-1000
aI-1000
aI-1000
aI-1000
aI-1000
aI-1000
aI-1000
aI-1000
aI0
aI0
aI-1000
aI0
aF-250.0
aI-1000
aI0
aF-500.0
aI-1000
aI0
aI0
aI-1000
aI0
aF-500.0
aI-1000
aI0
aI1000
aI-1000
aI-1000
aI-1000
aI-1000
aI-1000
aI-1000
aI-1000
aI-1000
aI-1000
aI0
aI0
aI0
aI0
aF3.125
aI0
aI0
aI0
aI0
aI0
aI0
aI0
aI0
aF6.25
aI0
aI0
aI0
aI1000
aI-1000
aI-1000
aI-1000
aI-1000
aI-1000
aI-1000
aI-1000
aI-1000
aI-1000
aI0
aF0.0
aI0
aI0
aF-500.0
aI0
aI0
aI0
aI0
aI0
aI0
aI0
aI0
aI0
aI0
aI0
aI0
aI1000
aI-1000
aI0
aI0
aI-1000
aI0
aI0
aI-1000
aI0
aI0
aI-1000
aI0
aI0
aI-1000
aF-62.5
aF0.0
aI-1000
aF-500.0
aI0
aI-1000
aI0
aI0
aI-1000
aF-500.0
aI0
aI-1000
aI0
aI1000
aI-1000
aI0
aI0
aI0
aF125.0
aI0
aI0
aI0
aI0
aI0
aF0.0
aI0
aF-62.5
aF-31.25
aI0
aF-500.0
aI0
aI0
aI0
aF0.0
aI0
aF-500.0
aI0
aI0
aI0
aI0
aI1000
aI-1000
aF-250.0
aF-500.0
aF-250.0
aI0
aI0
aF-500.0
aI0
aI0
aI0
aF-125.0
aI0
aF-125.0
aI0
aI0
aI0
aI0
aI0
aI0
aI0
aI0
aI0
aI0
aI0
aI0
aI0
aI1000
aI-1000
aI0
aI1000
aI-1000
aI0
aI1000
aI1000
aI1000
aI1000
aI-1000
aI0
aI1000
aI-1000
aF-500.0
aI1000
aI1000
aI1000
aI1000
aI-1000
aI0
aI1000
aI-1000
aI0
aI1000
aI1000
aI1000
aI1000
aI-1000
aF500.0
aI1000
aF500.0
aF250.0
aI1000
aI1000
aI1000
aI1000
aF-250.0
aF-125.0
aI1000
aF-500.0
aI0
aI1000
aI1000
aI1000
aI1000
aF-500.0
aI0
aI1000
aI0
aI0
aI1000
aI1000
aI1000
aI1000
aI-1000
aF-500.0
aI1000
aF-500.0
aI0
aI1000
aI1000
aI1000
aI1000
aF-500.0
aI0
aI1000
aI0
aI0
aI1000
aI1000
aI1000
aI1000
aI0
aI0
aI1000
aI0
aI0
aI1000
aI1000
aI1000
aI1000
aI-1000
aI-1000
aI-1000
aI-1000
aI-1000
aI-1000
aI-1000
aI-1000
aI-1000
aI-1000
aI0
aI0
aI-1000
aI0
aF-500.0
aI-1000
aI0
aI0
aI1000
aI1000
aI1000
aI1000
aI1000
aI1000
aI1000
aI1000
aI1000
aI-1000
aI-1000
aI-1000
aI-1000
aI-1000
aI-1000
aI-1000
aI-1000
aI-1000
aI0
aI0
aI0
aI0
aF-500.0
aI0
aI0
aI0
aI0
aI1000
aI1000
aI1000
aI1000
aI1000
aI1000
aI1000
aI1000
aI1000
aI-1000
aI-1000
aI-1000
aI-1000
aI-1000
aI-1000
aI-1000
aI-1000
aI-1000
aI0
aF-500.0
aI0
aI0
aI0
aI0
aI0
aI0
aI0
aI1000
aI1000
aI1000
aI1000
aI1000
aI1000
aI1000
aI1000
aI1000
aI-1000
aI0
aI0
aI-1000
aI0
aI0
aI-1000
aI0
aI0
aI-1000
aI0
aI0
aI-1000
aF-500.0
aI0
aI-1000
aI0
aI0
aI1000
aI1000
aI1000
aI1000
aI1000
aI1000
aI1000
aI1000
aI1000
aI-1000
aF-250.0
aF-500.0
aF-250.0
aF-125.0
aI0
aF-500.0
aI0
aI0
aI0
aF-125.0
aI0
aF-500.0
aI0
aI0
aI0
aI0
aI0
aI1000
aI1000
aI1000
aI1000
aI1000
aI1000
aI1000
aI1000
aI1000
aI-1000
aF-500.0
aI0
aF-500.0
aI0
aI0
aI0
aI0
aI0
aI0
aI0
aI0
aI0
aI0
aI0
aI0
aI0
aI0
aI1000
aI1000
aI1000
aI1000
aI1000
aI1000
aI1000
aI1000
aI1000
aI-1000
aI0
aI1000
aI-1000
aI0
aI1000
aI1000
aI1000
aI1000
aI-1000
aI0
aI1000
aI-1000
aI0
aI1000
aI1000
aI1000
aI1000
aI1000
aI1000
aI1000
aI1000
aI1000
aI1000
aI1000
aI1000
aI1000
aI-1000
aF-500.0
aI1000
aF-500.0
aI0
aI1000
aI1000
aI1000
aI1000
aF-500.0
aI0
aI1000
aI0
aI0
aI1000
aI1000
aI1000
aI1000
aI1000
aI1000
aI1000
aI1000
aI1000
aI1000
aI1000
aI1000
aI1000
aI1000
aI1000
aI1000
aI1000
aI1000
aI1000
aI1000
aI1000
aI1000
aI1000
aI1000
aI1000
aI1000
aI1000
aI1000
aI1000
aI1000
aI1000
aI1000
aI1000
aI1000
aI1000
aI1000
aI1000
aI1000
aI1000
aI1000
aI-1000
aI-1000
aI-1000
aI-1000
aI-1000
aI-1000
aI-1000
aI-1000
aI-1000
aI-1000
aI-1000
aI-1000
aI-1000
aI-1000
aI-1000
aI-1000
aI-1000
aI-1000
aI-1000
aI-1000
aI-1000
aI-1000
aI-1000
aI-1000
aI-1000
aI-1000
aI1000
aI-1000
aI0
aI0
aI0
aI0
aI0
aI0
aI0
aI0
aI0
aI0
aI0
aI0
aI0
aI0
aI0
aI0
aI0
aI0
aI0
aI0
aI0
aI0
aI0
aI0
aI0
aI1000
aI-1000
aI0
aI0
aI0
aI0
aI0
aI0
aI0
aI0
aI0
aI0
aI0
aI0
aI0
aI0
aI0
aI0
aI0
aI0
aI0
aI0
aI0
aI0
aI0
aI0
aI0
aI1000
aI-1000
aI0
aI0
aI0
aI0
aI0
aI0
aI0
aI0
aI0
aI0
aI0
aI0
aI0
aI0
aI0
aI0
aI0
aI0
aI0
aI0
aI0
aI0
aI0
aI0
aI0
aI1000
aI-1000
aI0
aI0
aI0
aI0
aI0
aI0
aI0
aI0
aI0
aI0
aI0
aI0
aF0.0
aI0
aI0
aI0
aI0
aI0
aI0
aI0
aI0
aI0
aI0
aI0
aI0
aI1000
aI-1000
aI0
aI0
aI0
aI0
aI0
aI0
aI0
aI0
aI0
aI0
aI0
aI0
aI0
aI0
aI0
aI0
aI0
aI0
aI0
aI0
aI0
aI0
aI0
aI0
aI0
aI1000
aI-1000
aI0
aI1000
aI0
aI0
aI1000
aI1000
aI1000
aI1000
aI0
aI0
aI1000
aI0
aI0
aI1000
aI1000
aI1000
aI1000
aI0
aI0
aI1000
aI0
aI0
aI1000
aI1000
aI1000
aI1000
aI-1000
aI0
aI1000
aI0
aI0
aI1000
aI1000
aI1000
aI1000
aI0
aI0
aI1000
aI0
aI0
aI1000
aI1000
aI1000
aI1000
aI0
aI0
aI1000
aI0
aI0
aI1000
aI1000
aI1000
aI1000
aI-1000
aI0
aI1000
aI0
aI0
aI1000
aI1000
aI1000
aI1000
aI0
aI0
aI1000
aI0
aI0
aI1000
aI1000
aI1000
aI1000
aI0
aI0
aI1000
aI0
aI0
aI1000
aI1000
aI1000
aI1000
aI-1000
aI0
aI0
aI0
aI0
aI0
aI0
aI0
aI0
aI0
aI0
aI0
aI0
aI0
aI0
aI0
aI0
aI0
aI0
aI0
aI0
aI0
aI0
aI0
aI0
aI0
aI1000
aI-1000
aI0
aI0
aI0
aI0
aI0
aI0
aI0
aI0
aI0
aI0
aI0
aI0
aF1.5625
aI0
aI0
aI0
aI0
aI0
aI0
aI0
aI0
aI0
aI0
aI0
aI0
aI1000
aI-1000
aI0
aI0
aI0
aI0
aI0
aI0
aI0
aI0
aI0
aI0
aI0
aI0
aI0
aI0
aI0
aI0
aI0
aI0
aI0
aI0
aI0
aI0
aI0
aI0
aI0
aI1000
aI-1000
aI0
aI0
aI0
aI0
aI0
aI0
aI0
aI0
aI0
aI0
aI0
aI0
aF-31.25
aI0
aI0
aI0
aI0
aI0
aI0
aI0
aI0
aI0
aI0
aI0
aI0
aI1000
aI-1000
aI0
aI0
aI0
aF62.5
aI0
aI0
aI0
aI0
aI0
aF0.0
aI0
aF-31.25
aI0
aI0
aI0
aI0
aI0
aI0
aI0
aI0
aI0
aI0
aI0
aI0
aI0
aI1000
aI-1000
aI0
aI0
aI0
aI0
aI0
aI0
aI0
aI0
aI0
aI0
aI0
aI0
aI0
aI0
aI0
aI0
aI0
aI0
aI0
aI0
aI0
aI0
aI0
aI0
aI0
aI1000
aI-1000
aI0
aI1000
aI0
aI0
aI1000
aI1000
aI1000
aI1000
aI0
aI0
aI1000
aI0
aI0
aI1000
aI1000
aI1000
aI1000
aI0
aI0
aI1000
aI0
aI0
aI1000
aI1000
aI1000
aI1000
aI-1000
aI0
aI1000
aI0
aI0
aI1000
aI1000
aI1000
aI1000
aI0
aI0
aI1000
aI0
aI0
aI1000
aI1000
aI1000
aI1000
aI0
aI0
aI1000
aI0
aI0
aI1000
aI1000
aI1000
aI1000
aI-1000
aI0
aI1000
aI0
aI0
aI1000
aI1000
aI1000
aI1000
aI0
aI0
aI1000
aI0
aI0
aI1000
aI1000
aI1000
aI1000
aI0
aI0
aI1000
aI0
aI0
aI1000
aI1000
aI1000
aI1000
aI-1000
aI0
aI0
aI0
aI0
aI0
aI0
aI0
aI0
aI0
aI0
aI0
aI0
aI0
aI0
aI0
aI0
aI0
aI1000
aI1000
aI1000
aI1000
aI1000
aI1000
aI1000
aI1000
aI1000
aI-1000
aI0
aI0
aI0
aI0
aI0
aI0
aI0
aI0
aI0
aI0
aI0
aI0
aI0
aI0
aI0
aI0
aI0
aI1000
aI1000
aI1000
aI1000
aI1000
aI1000
aI1000
aI1000
aI1000
aI-1000
aI0
aI0
aI0
aI0
aI0
aI0
aI0
aI0
aI0
aI0
aI0
aI0
aI0
aI0
aI0
aI0
aI0
aI1000
aI1000
aI1000
aI1000
aI1000
aI1000
aI1000
aI1000
aI1000
aI-1000
aI0
aI0
aI0
aI0
aI0
aI0
aI0
aI0
aI0
aI0
aI0
aI0
aI0
aI0
aI0
aI0
aI0
aI1000
aI1000
aI1000
aI1000
aI1000
aI1000
aI1000
aI1000
aI1000
aI-1000
aI0
aI0
aI0
aI0
aI0
aI0
aI0
aI0
aI0
aI0
aI0
aI0
aI0
aI0
aI0
aI0
aI0
aI1000
aI1000
aI1000
aI1000
aI1000
aI1000
aI1000
aI1000
aI1000
aI-1000
aI0
aI0
aI0
aI0
aI0
aI0
aI0
aI0
aI0
aI0
aI0
aI0
aI0
aI0
aI0
aI0
aI0
aI1000
aI1000
aI1000
aI1000
aI1000
aI1000
aI1000
aI1000
aI1000
aI-1000
aI0
aI1000
aI0
aI0
aI1000
aI1000
aI1000
aI1000
aI0
aI0
aI1000
aI0
aI0
aI1000
aI1000
aI1000
aI1000
aI1000
aI1000
aI1000
aI1000
aI1000
aI1000
aI1000
aI1000
aI1000
aI-1000
aI0
aI1000
aI0
aI0
aI1000
aI1000
aI1000
aI1000
aI0
aI0
aI1000
aI0
aI0
aI1000
aI1000
aI1000
aI1000
aI1000
aI1000
aI1000
aI1000
aI1000
aI1000
aI1000
aI1000
aI1000
aI1000
aI1000
aI1000
aI1000
aI1000
aI1000
aI1000
aI1000
aI1000
aI1000
aI1000
aI1000
aI1000
aI1000
aI1000
aI1000
aI1000
aI1000
aI1000
aI1000
aI1000
aI1000
aI1000
aI1000
aI1000
aI1000
aI1000
aI1000
aI1000
aI1000
aI1000
aI1000
aI1000
aI1000
aI1000
aI1000
aI1000
aI1000
aI1000
aI1000
aI1000
aI1000
aI1000
aI1000
aI1000
aI1000
aI1000
aI1000
aI1000
aI1000
aI1000
aI1000
aI1000
aI1000
aI1000
aI1000
aI1000
aI1000
aI1000
aI1000
aI1000
aI1000
aI1000
aI1000
aI1000
aI1000
aI1000
aI1000
aI1000
aI1000
aI1000
aI1000
aI1000
aI1000
aI1000
aI1000
aI1000
aI1000
aI1000
aI1000
aI1000
aI1000
aI1000
aI1000
aI1000
aI1000
aI1000
aI1000
aI1000
aI1000
aI1000
aI1000
aI1000
aI1000
aI1000
aI1000
aI1000
aI1000
aI1000
aI1000
aI1000
aI1000
aI1000
aI1000
aI1000
aI1000
aI1000
aI1000
aI1000
aI1000
aI1000
aI1000
aI1000
aI1000
aI1000
aI1000
aI1000
aI1000
aI1000
aI1000
aI1000
aI1000
aI1000
aI1000
aI1000
aI1000
aI1000
aI1000
aI1000
aI1000
aI1000
aI1000
aI1000
aI1000
aI1000
aI1000
aI1000
aI1000
aI1000
aI1000
aI1000
aI1000
aI1000
aI1000
aI1000
aI1000
aI1000
aI1000
aI1000
aI1000
aI1000
aI1000
aI1000
aI1000
aI1000
aI1000
aI1000
aI1000
aI1000
aI1000
aI1000
aI1000
aI1000
aI1000
aI1000
aI1000
aI1000
aI1000
aI1000
aI1000
aI1000
aI1000
aI1000
aI1000
aI1000
aI1000
aI1000
aI1000
aI1000
aI1000
aI1000
aI1000
aI1000
aI1000
aI1000
aI1000
aI1000
aI1000
aI1000
aI1000
aI1000
aI1000
aI1000
aI1000
aI1000
aI1000
aI1000
aI1000
aI1000
aI1000
aI1000
aI1000
aI1000
aI1000
aI1000
aI1000
aI1000
aI1000
aI1000
aI1000
aI1000
aI1000
aI1000
aI1000
aI1000
aI1000
aI1000
aI1000
aI1000
aI1000
aI1000
aI1000
aI1000
aI1000
aI1000
aI1000
aI1000
aI1000
aI1000
aI1000
aI1000
aI1000
aI1000
aI1000
aI1000
aI1000
aI1000
aI1000
aI1000
aI1000
aI1000
aI1000
aI1000
aI1000
aI1000
aI1000
aI1000
aI1000
aI1000
aI1000
aI1000
aI1000
aI1000
aI1000
aI1000
aI1000
aI1000
aI1000
aI1000
aI1000
aI1000
aI1000
aI1000
aI1000
aI1000
aI1000
aI1000
aI1000
aI1000
aI1000
aI1000
aI1000
aI1000
aI1000
aI1000
aI1000
aI1000
aI1000
aI1000
aI1000
aI1000
aI1000
aI1000
aI1000
aI1000
aI1000
aI1000
aI1000
aI1000
aI1000
aI1000
aI1000
aI1000
aI1000
aI1000
aI1000
aI1000
aI1000
aI1000
aI1000
aI1000
aI1000
aI1000
aI1000
aI1000
aI1000
aI1000
aI1000
aI1000
aI1000
aI1000
aI1000
aI1000
aI1000
aI1000
aI1000
aI1000
aI1000
aI1000
aI1000
aI1000
aI1000
aI1000
aI1000
aI1000
aI1000
aI1000
aI1000
aI1000
aI1000
aI1000
aI1000
aI1000
aI1000
aI1000
aI1000
aI1000
aI1000
aI1000
aI1000
aI1000
aI1000
aI1000
aI1000
aI1000
aI1000
aI1000
aI1000
aI1000
aI1000
aI1000
aI1000
aI1000
aI1000
aI1000
aI1000
aI1000
aI1000
aI1000
aI1000
aI1000
aI1000
aI1000
aI1000
aI1000
aI1000
aI1000
aI1000
aI1000
aI1000
aI1000
aI1000
aI1000
aI1000
aI1000
aI1000
aI1000
aI1000
aI1000
aI1000
aI1000
aI1000
aI1000
aI1000
aI1000
aI1000
aI1000
aI1000
aI1000
aI1000
aI1000
aI1000
aI1000
aI1000
aI1000
aI1000
aI1000
aI1000
aI1000
aI1000
aI1000
aI1000
aI1000
aI1000
aI1000
aI1000
aI1000
aI1000
aI1000
aI1000
aI1000
aI1000
aI1000
aI1000
aI1000
aI1000
aI1000
aI1000
aI1000
aI1000
aI1000
aI1000
aI1000
aI1000
aI1000
aI1000
aI1000
aI1000
aI1000
aI1000
aI1000
aI1000
aI1000
aI1000
aI1000
aI1000
aI1000
aI1000
aI1000
aI1000
aI1000
aI1000
aI1000
aI1000
aI1000
aI1000
aI1000
aI1000
aI1000
aI1000
aI1000
aI1000
aI1000
aI1000
aI1000
aI1000
aI1000
aI1000
aI1000
aI1000
aI1000
aI1000
aI1000
aI1000
aI1000
aI1000
aI1000
aI1000
aI1000
aI1000
aI1000
aI1000
aI1000
aI1000
aI1000
aI1000
aI1000
aI1000
aI1000
aI1000
aI1000
aI1000
aI1000
aI1000
aI1000
aI1000
aI1000
aI1000
aI1000
aI1000
aI1000
aI1000
aI1000
aI1000
aI1000
aI1000
aI1000
aI1000
aI1000
aI1000
aI1000
aI1000
aI1000
aI1000
aI1000
aI1000
aI1000
aI1000
aI1000
aI1000
aI1000
aI1000
aI1000
aI1000
aI1000
aI1000
aI1000
aI1000
aI1000
aI1000
aI1000
aI1000
aI1000
aI1000
aI1000
aI1000
aI1000
aI1000
aI1000
aI1000
aI1000
aI1000
aI1000
aI1000
aI1000
aI1000
aI1000
aI1000
aI1000
aI1000
aI1000
aI1000
aI1000
aI1000
aI1000
aI1000
aI1000
aI1000
aI1000
aI1000
aI1000
aI1000
aI1000
aI1000
aI1000
aI1000
aI1000
aI1000
aI1000
aI1000
aI1000
aI1000
aI1000
aI1000
aI1000
aI1000
aI1000
aI1000
aI1000
aI1000
aI1000
aI1000
aI1000
aI1000
aI1000
aI1000
aI1000
aI1000
aI1000
aI1000
aI1000
aI1000
aI1000
aI1000
aI1000
aI1000
aI1000
aI1000
aI1000
aI1000
aI1000
aI1000
aI1000
aI1000
aI1000
aI1000
aI1000
aI1000
aI1000
aI1000
aI1000
aI1000
aI1000
aI1000
aI1000
aI1000
aI1000
aI1000
aI1000
aI1000
aI1000
aI1000
aI1000
aI1000
aI1000
aI1000
aI1000
aI1000
aI1000
aI1000
aI1000
aI1000
aI1000
aI1000
aI1000
aI1000
aI1000
aI1000
aI1000
aI1000
aI1000
aI1000
aI1000
aI1000
aI1000
aI1000
aI1000
aI1000
aI1000
aI1000
aI1000
aI1000
aI1000
aI1000
aI1000
aI1000
aI1000
aI1000
aI1000
aI1000
aI1000
aI1000
aI1000
aI1000
aI1000
aI1000
aI1000
aI1000
aI1000
aI1000
aI1000
aI1000
aI1000
aI1000
aI1000
aI1000
aI1000
aI1000
aI1000
aI1000
aI1000
aI1000
aI1000
aI1000
aI1000
aI1000
aI1000
aI1000
aI1000
aI1000
aI1000
aI1000
aI1000
aI1000
aI1000
aI1000
aI1000
aI1000
aI1000
aI1000
aI1000
aI1000
aI1000
aI1000
aI1000
aI1000
aI1000
aI1000
aI1000
aI1000
aI1000
aI1000
aI1000
aI1000
aI1000
aI1000
aI1000
aI1000
aI1000
aI1000
aI1000
aI1000
aI1000
aI1000
aI1000
aI1000
aI1000
aI1000
aI1000
aI1000
aI1000
aI1000
aI1000
aI1000
aI1000
aI1000
aI1000
aI1000
aI1000
aI1000
aI1000
aI1000
aI1000
aI1000
aI1000
aI1000
aI1000
aI1000
aI1000
aI1000
aI1000
aI1000
aI1000
aI1000
aI1000
aI1000
aI1000
aI1000
aI1000
aI1000
aI1000
aI1000
aI1000
aI1000
aI1000
aI1000
a.